
kernel/kernel:     file format elf64-littleriscv


Disassembly of section .text:

0000000080000000 <_entry>:
_entry:
        # set up a stack for C.
        # stack0 is declared in start.c,
        # with a 4096-byte stack per CPU.
        # sp = stack0 + ((hartid + 1) * 4096)
        la sp, stack0
    80000000:	00008117          	auipc	sp,0x8
    80000004:	86010113          	addi	sp,sp,-1952 # 80007860 <stack0>
        li a0, 1024*4
    80000008:	6505                	lui	a0,0x1
        csrr a1, mhartid
    8000000a:	f14025f3          	csrr	a1,mhartid
        addi a1, a1, 1
    8000000e:	0585                	addi	a1,a1,1
        mul a0, a0, a1
    80000010:	02b50533          	mul	a0,a0,a1
        add sp, sp, a0
    80000014:	912a                	add	sp,sp,a0
        # jump to start() in start.c
        call start
    80000016:	04e000ef          	jal	80000064 <start>

000000008000001a <spin>:
spin:
        j spin
    8000001a:	a001                	j	8000001a <spin>

000000008000001c <timerinit>:
}

// ask each hart to generate timer interrupts.
void
timerinit()
{
    8000001c:	1141                	addi	sp,sp,-16
    8000001e:	e406                	sd	ra,8(sp)
    80000020:	e022                	sd	s0,0(sp)
    80000022:	0800                	addi	s0,sp,16
#define MIE_STIE (1L << 5)  // supervisor timer
static inline uint64
r_mie()
{
  uint64 x;
  asm volatile("csrr %0, mie" : "=r" (x) );
    80000024:	304027f3          	csrr	a5,mie
  // enable supervisor-mode timer interrupts.
  w_mie(r_mie() | MIE_STIE);
    80000028:	0207e793          	ori	a5,a5,32
}

static inline void 
w_mie(uint64 x)
{
  asm volatile("csrw mie, %0" : : "r" (x));
    8000002c:	30479073          	csrw	mie,a5
static inline uint64
r_menvcfg()
{
  uint64 x;
  // asm volatile("csrr %0, menvcfg" : "=r" (x) );
  asm volatile("csrr %0, 0x30a" : "=r" (x) );
    80000030:	30a027f3          	csrr	a5,0x30a
  
  // enable the sstc extension (i.e. stimecmp).
  w_menvcfg(r_menvcfg() | (1L << 63)); 
    80000034:	577d                	li	a4,-1
    80000036:	177e                	slli	a4,a4,0x3f
    80000038:	8fd9                	or	a5,a5,a4

static inline void 
w_menvcfg(uint64 x)
{
  // asm volatile("csrw menvcfg, %0" : : "r" (x));
  asm volatile("csrw 0x30a, %0" : : "r" (x));
    8000003a:	30a79073          	csrw	0x30a,a5

static inline uint64
r_mcounteren()
{
  uint64 x;
  asm volatile("csrr %0, mcounteren" : "=r" (x) );
    8000003e:	306027f3          	csrr	a5,mcounteren
  
  // allow supervisor to use stimecmp and time.
  w_mcounteren(r_mcounteren() | 2);
    80000042:	0027e793          	ori	a5,a5,2
  asm volatile("csrw mcounteren, %0" : : "r" (x));
    80000046:	30679073          	csrw	mcounteren,a5
// machine-mode cycle counter
static inline uint64
r_time()
{
  uint64 x;
  asm volatile("csrr %0, time" : "=r" (x) );
    8000004a:	c01027f3          	rdtime	a5
  
  // ask for the very first timer interrupt.
  w_stimecmp(r_time() + 1000000);
    8000004e:	000f4737          	lui	a4,0xf4
    80000052:	24070713          	addi	a4,a4,576 # f4240 <_entry-0x7ff0bdc0>
    80000056:	97ba                	add	a5,a5,a4
  asm volatile("csrw 0x14d, %0" : : "r" (x));
    80000058:	14d79073          	csrw	stimecmp,a5
}
    8000005c:	60a2                	ld	ra,8(sp)
    8000005e:	6402                	ld	s0,0(sp)
    80000060:	0141                	addi	sp,sp,16
    80000062:	8082                	ret

0000000080000064 <start>:
{
    80000064:	1141                	addi	sp,sp,-16
    80000066:	e406                	sd	ra,8(sp)
    80000068:	e022                	sd	s0,0(sp)
    8000006a:	0800                	addi	s0,sp,16
  asm volatile("csrr %0, mstatus" : "=r" (x) );
    8000006c:	300027f3          	csrr	a5,mstatus
  x &= ~MSTATUS_MPP_MASK;
    80000070:	7779                	lui	a4,0xffffe
    80000072:	7ff70713          	addi	a4,a4,2047 # ffffffffffffe7ff <end+0xffffffff7ffddc97>
    80000076:	8ff9                	and	a5,a5,a4
  x |= MSTATUS_MPP_S;
    80000078:	6705                	lui	a4,0x1
    8000007a:	80070713          	addi	a4,a4,-2048 # 800 <_entry-0x7ffff800>
    8000007e:	8fd9                	or	a5,a5,a4
  asm volatile("csrw mstatus, %0" : : "r" (x));
    80000080:	30079073          	csrw	mstatus,a5
  asm volatile("csrw mepc, %0" : : "r" (x));
    80000084:	00001797          	auipc	a5,0x1
    80000088:	e2a78793          	addi	a5,a5,-470 # 80000eae <main>
    8000008c:	34179073          	csrw	mepc,a5
  asm volatile("csrw satp, %0" : : "r" (x));
    80000090:	4781                	li	a5,0
    80000092:	18079073          	csrw	satp,a5
  asm volatile("csrw medeleg, %0" : : "r" (x));
    80000096:	67c1                	lui	a5,0x10
    80000098:	17fd                	addi	a5,a5,-1 # ffff <_entry-0x7fff0001>
    8000009a:	30279073          	csrw	medeleg,a5
  asm volatile("csrw mideleg, %0" : : "r" (x));
    8000009e:	30379073          	csrw	mideleg,a5
  asm volatile("csrr %0, sie" : "=r" (x) );
    800000a2:	104027f3          	csrr	a5,sie
  w_sie(r_sie() | SIE_SEIE | SIE_STIE);
    800000a6:	2207e793          	ori	a5,a5,544
  asm volatile("csrw sie, %0" : : "r" (x));
    800000aa:	10479073          	csrw	sie,a5
  asm volatile("csrw pmpaddr0, %0" : : "r" (x));
    800000ae:	57fd                	li	a5,-1
    800000b0:	83a9                	srli	a5,a5,0xa
    800000b2:	3b079073          	csrw	pmpaddr0,a5
  asm volatile("csrw pmpcfg0, %0" : : "r" (x));
    800000b6:	47bd                	li	a5,15
    800000b8:	3a079073          	csrw	pmpcfg0,a5
  timerinit();
    800000bc:	f61ff0ef          	jal	8000001c <timerinit>
  asm volatile("csrr %0, mhartid" : "=r" (x) );
    800000c0:	f14027f3          	csrr	a5,mhartid
  w_tp(id);
    800000c4:	2781                	sext.w	a5,a5
}

static inline void 
w_tp(uint64 x)
{
  asm volatile("mv tp, %0" : : "r" (x));
    800000c6:	823e                	mv	tp,a5
  asm volatile("mret");
    800000c8:	30200073          	mret
}
    800000cc:	60a2                	ld	ra,8(sp)
    800000ce:	6402                	ld	s0,0(sp)
    800000d0:	0141                	addi	sp,sp,16
    800000d2:	8082                	ret

00000000800000d4 <consolewrite>:
//
// user write()s to the console go here.
//
int
consolewrite(int user_src, uint64 src, int n)
{
    800000d4:	7119                	addi	sp,sp,-128
    800000d6:	fc86                	sd	ra,120(sp)
    800000d8:	f8a2                	sd	s0,112(sp)
    800000da:	f4a6                	sd	s1,104(sp)
    800000dc:	0100                	addi	s0,sp,128
  char buf[32];
  int i = 0;

  while(i < n){
    800000de:	06c05b63          	blez	a2,80000154 <consolewrite+0x80>
    800000e2:	f0ca                	sd	s2,96(sp)
    800000e4:	ecce                	sd	s3,88(sp)
    800000e6:	e8d2                	sd	s4,80(sp)
    800000e8:	e4d6                	sd	s5,72(sp)
    800000ea:	e0da                	sd	s6,64(sp)
    800000ec:	fc5e                	sd	s7,56(sp)
    800000ee:	f862                	sd	s8,48(sp)
    800000f0:	f466                	sd	s9,40(sp)
    800000f2:	f06a                	sd	s10,32(sp)
    800000f4:	8b2a                	mv	s6,a0
    800000f6:	8bae                	mv	s7,a1
    800000f8:	8a32                	mv	s4,a2
  int i = 0;
    800000fa:	4481                	li	s1,0
    int nn = sizeof(buf);
    if(nn > n - i)
    800000fc:	02000c93          	li	s9,32
    80000100:	02000d13          	li	s10,32
      nn = n - i;
    if(either_copyin(buf, user_src, src+i, nn) == -1)
    80000104:	f8040a93          	addi	s5,s0,-128
    80000108:	5c7d                	li	s8,-1
    8000010a:	a025                	j	80000132 <consolewrite+0x5e>
    if(nn > n - i)
    8000010c:	0009099b          	sext.w	s3,s2
    if(either_copyin(buf, user_src, src+i, nn) == -1)
    80000110:	86ce                	mv	a3,s3
    80000112:	01748633          	add	a2,s1,s7
    80000116:	85da                	mv	a1,s6
    80000118:	8556                	mv	a0,s5
    8000011a:	1b6020ef          	jal	800022d0 <either_copyin>
    8000011e:	03850d63          	beq	a0,s8,80000158 <consolewrite+0x84>
      break;
    uartwrite(buf, nn);
    80000122:	85ce                	mv	a1,s3
    80000124:	8556                	mv	a0,s5
    80000126:	7b4000ef          	jal	800008da <uartwrite>
    i += nn;
    8000012a:	009904bb          	addw	s1,s2,s1
  while(i < n){
    8000012e:	0144d963          	bge	s1,s4,80000140 <consolewrite+0x6c>
    if(nn > n - i)
    80000132:	409a07bb          	subw	a5,s4,s1
    80000136:	893e                	mv	s2,a5
    80000138:	fcfcdae3          	bge	s9,a5,8000010c <consolewrite+0x38>
    8000013c:	896a                	mv	s2,s10
    8000013e:	b7f9                	j	8000010c <consolewrite+0x38>
    80000140:	7906                	ld	s2,96(sp)
    80000142:	69e6                	ld	s3,88(sp)
    80000144:	6a46                	ld	s4,80(sp)
    80000146:	6aa6                	ld	s5,72(sp)
    80000148:	6b06                	ld	s6,64(sp)
    8000014a:	7be2                	ld	s7,56(sp)
    8000014c:	7c42                	ld	s8,48(sp)
    8000014e:	7ca2                	ld	s9,40(sp)
    80000150:	7d02                	ld	s10,32(sp)
    80000152:	a821                	j	8000016a <consolewrite+0x96>
  int i = 0;
    80000154:	4481                	li	s1,0
    80000156:	a811                	j	8000016a <consolewrite+0x96>
    80000158:	7906                	ld	s2,96(sp)
    8000015a:	69e6                	ld	s3,88(sp)
    8000015c:	6a46                	ld	s4,80(sp)
    8000015e:	6aa6                	ld	s5,72(sp)
    80000160:	6b06                	ld	s6,64(sp)
    80000162:	7be2                	ld	s7,56(sp)
    80000164:	7c42                	ld	s8,48(sp)
    80000166:	7ca2                	ld	s9,40(sp)
    80000168:	7d02                	ld	s10,32(sp)
  }

  return i;
}
    8000016a:	8526                	mv	a0,s1
    8000016c:	70e6                	ld	ra,120(sp)
    8000016e:	7446                	ld	s0,112(sp)
    80000170:	74a6                	ld	s1,104(sp)
    80000172:	6109                	addi	sp,sp,128
    80000174:	8082                	ret

0000000080000176 <consoleread>:
// user_dist indicates whether dst is a user
// or kernel address.
//
int
consoleread(int user_dst, uint64 dst, int n)
{
    80000176:	711d                	addi	sp,sp,-96
    80000178:	ec86                	sd	ra,88(sp)
    8000017a:	e8a2                	sd	s0,80(sp)
    8000017c:	e4a6                	sd	s1,72(sp)
    8000017e:	e0ca                	sd	s2,64(sp)
    80000180:	fc4e                	sd	s3,56(sp)
    80000182:	f852                	sd	s4,48(sp)
    80000184:	f05a                	sd	s6,32(sp)
    80000186:	ec5e                	sd	s7,24(sp)
    80000188:	1080                	addi	s0,sp,96
    8000018a:	8b2a                	mv	s6,a0
    8000018c:	8a2e                	mv	s4,a1
    8000018e:	89b2                	mv	s3,a2
  uint target;
  int c;
  char cbuf;

  target = n;
    80000190:	8bb2                	mv	s7,a2
  acquire(&cons.lock);
    80000192:	0000f517          	auipc	a0,0xf
    80000196:	6ce50513          	addi	a0,a0,1742 # 8000f860 <cons>
    8000019a:	28f000ef          	jal	80000c28 <acquire>
  while(n > 0){
    // wait until interrupt handler has put some
    // input into cons.buffer.
    while(cons.r == cons.w){
    8000019e:	0000f497          	auipc	s1,0xf
    800001a2:	6c248493          	addi	s1,s1,1730 # 8000f860 <cons>
      if(killed(myproc())){
        release(&cons.lock);
        return -1;
      }
      sleep(&cons.r, &cons.lock);
    800001a6:	0000f917          	auipc	s2,0xf
    800001aa:	75290913          	addi	s2,s2,1874 # 8000f8f8 <cons+0x98>
  while(n > 0){
    800001ae:	0b305b63          	blez	s3,80000264 <consoleread+0xee>
    while(cons.r == cons.w){
    800001b2:	0984a783          	lw	a5,152(s1)
    800001b6:	09c4a703          	lw	a4,156(s1)
    800001ba:	0af71063          	bne	a4,a5,8000025a <consoleread+0xe4>
      if(killed(myproc())){
    800001be:	770010ef          	jal	8000192e <myproc>
    800001c2:	7a7010ef          	jal	80002168 <killed>
    800001c6:	e12d                	bnez	a0,80000228 <consoleread+0xb2>
      sleep(&cons.r, &cons.lock);
    800001c8:	85a6                	mv	a1,s1
    800001ca:	854a                	mv	a0,s2
    800001cc:	561010ef          	jal	80001f2c <sleep>
    while(cons.r == cons.w){
    800001d0:	0984a783          	lw	a5,152(s1)
    800001d4:	09c4a703          	lw	a4,156(s1)
    800001d8:	fef703e3          	beq	a4,a5,800001be <consoleread+0x48>
    800001dc:	f456                	sd	s5,40(sp)
    }

    c = cons.buf[cons.r++ % INPUT_BUF_SIZE];
    800001de:	0000f717          	auipc	a4,0xf
    800001e2:	68270713          	addi	a4,a4,1666 # 8000f860 <cons>
    800001e6:	0017869b          	addiw	a3,a5,1
    800001ea:	08d72c23          	sw	a3,152(a4)
    800001ee:	07f7f693          	andi	a3,a5,127
    800001f2:	9736                	add	a4,a4,a3
    800001f4:	01874703          	lbu	a4,24(a4)
    800001f8:	00070a9b          	sext.w	s5,a4

    if(c == C('D')){  // end-of-file
    800001fc:	4691                	li	a3,4
    800001fe:	04da8663          	beq	s5,a3,8000024a <consoleread+0xd4>
      }
      break;
    }

    // copy the input byte to the user-space buffer.
    cbuf = c;
    80000202:	fae407a3          	sb	a4,-81(s0)
    if(either_copyout(user_dst, dst, &cbuf, 1) == -1)
    80000206:	4685                	li	a3,1
    80000208:	faf40613          	addi	a2,s0,-81
    8000020c:	85d2                	mv	a1,s4
    8000020e:	855a                	mv	a0,s6
    80000210:	076020ef          	jal	80002286 <either_copyout>
    80000214:	57fd                	li	a5,-1
    80000216:	04f50663          	beq	a0,a5,80000262 <consoleread+0xec>
      break;

    dst++;
    8000021a:	0a05                	addi	s4,s4,1
    --n;
    8000021c:	39fd                	addiw	s3,s3,-1

    if(c == '\n'){
    8000021e:	47a9                	li	a5,10
    80000220:	04fa8b63          	beq	s5,a5,80000276 <consoleread+0x100>
    80000224:	7aa2                	ld	s5,40(sp)
    80000226:	b761                	j	800001ae <consoleread+0x38>
        release(&cons.lock);
    80000228:	0000f517          	auipc	a0,0xf
    8000022c:	63850513          	addi	a0,a0,1592 # 8000f860 <cons>
    80000230:	28d000ef          	jal	80000cbc <release>
        return -1;
    80000234:	557d                	li	a0,-1
    }
  }
  release(&cons.lock);

  return target - n;
}
    80000236:	60e6                	ld	ra,88(sp)
    80000238:	6446                	ld	s0,80(sp)
    8000023a:	64a6                	ld	s1,72(sp)
    8000023c:	6906                	ld	s2,64(sp)
    8000023e:	79e2                	ld	s3,56(sp)
    80000240:	7a42                	ld	s4,48(sp)
    80000242:	7b02                	ld	s6,32(sp)
    80000244:	6be2                	ld	s7,24(sp)
    80000246:	6125                	addi	sp,sp,96
    80000248:	8082                	ret
      if(n < target){
    8000024a:	0179fa63          	bgeu	s3,s7,8000025e <consoleread+0xe8>
        cons.r--;
    8000024e:	0000f717          	auipc	a4,0xf
    80000252:	6af72523          	sw	a5,1706(a4) # 8000f8f8 <cons+0x98>
    80000256:	7aa2                	ld	s5,40(sp)
    80000258:	a031                	j	80000264 <consoleread+0xee>
    8000025a:	f456                	sd	s5,40(sp)
    8000025c:	b749                	j	800001de <consoleread+0x68>
    8000025e:	7aa2                	ld	s5,40(sp)
    80000260:	a011                	j	80000264 <consoleread+0xee>
    80000262:	7aa2                	ld	s5,40(sp)
  release(&cons.lock);
    80000264:	0000f517          	auipc	a0,0xf
    80000268:	5fc50513          	addi	a0,a0,1532 # 8000f860 <cons>
    8000026c:	251000ef          	jal	80000cbc <release>
  return target - n;
    80000270:	413b853b          	subw	a0,s7,s3
    80000274:	b7c9                	j	80000236 <consoleread+0xc0>
    80000276:	7aa2                	ld	s5,40(sp)
    80000278:	b7f5                	j	80000264 <consoleread+0xee>

000000008000027a <consputc>:
{
    8000027a:	1141                	addi	sp,sp,-16
    8000027c:	e406                	sd	ra,8(sp)
    8000027e:	e022                	sd	s0,0(sp)
    80000280:	0800                	addi	s0,sp,16
  if(c == BACKSPACE){
    80000282:	10000793          	li	a5,256
    80000286:	00f50863          	beq	a0,a5,80000296 <consputc+0x1c>
    uartputc_sync(c);
    8000028a:	6e4000ef          	jal	8000096e <uartputc_sync>
}
    8000028e:	60a2                	ld	ra,8(sp)
    80000290:	6402                	ld	s0,0(sp)
    80000292:	0141                	addi	sp,sp,16
    80000294:	8082                	ret
    uartputc_sync('\b'); uartputc_sync(' '); uartputc_sync('\b');
    80000296:	4521                	li	a0,8
    80000298:	6d6000ef          	jal	8000096e <uartputc_sync>
    8000029c:	02000513          	li	a0,32
    800002a0:	6ce000ef          	jal	8000096e <uartputc_sync>
    800002a4:	4521                	li	a0,8
    800002a6:	6c8000ef          	jal	8000096e <uartputc_sync>
    800002aa:	b7d5                	j	8000028e <consputc+0x14>

00000000800002ac <consoleintr>:
// do erase/kill processing, append to cons.buf,
// wake up consoleread() if a whole line has arrived.
//
void
consoleintr(int c)
{
    800002ac:	1101                	addi	sp,sp,-32
    800002ae:	ec06                	sd	ra,24(sp)
    800002b0:	e822                	sd	s0,16(sp)
    800002b2:	e426                	sd	s1,8(sp)
    800002b4:	1000                	addi	s0,sp,32
    800002b6:	84aa                	mv	s1,a0
  acquire(&cons.lock);
    800002b8:	0000f517          	auipc	a0,0xf
    800002bc:	5a850513          	addi	a0,a0,1448 # 8000f860 <cons>
    800002c0:	169000ef          	jal	80000c28 <acquire>

  switch(c){
    800002c4:	47d5                	li	a5,21
    800002c6:	08f48d63          	beq	s1,a5,80000360 <consoleintr+0xb4>
    800002ca:	0297c563          	blt	a5,s1,800002f4 <consoleintr+0x48>
    800002ce:	47a1                	li	a5,8
    800002d0:	0ef48263          	beq	s1,a5,800003b4 <consoleintr+0x108>
    800002d4:	47c1                	li	a5,16
    800002d6:	10f49363          	bne	s1,a5,800003dc <consoleintr+0x130>
  case C('P'):  // Print process list.
    procdump();
    800002da:	040020ef          	jal	8000231a <procdump>
      }
    }
    break;
  }
  
  release(&cons.lock);
    800002de:	0000f517          	auipc	a0,0xf
    800002e2:	58250513          	addi	a0,a0,1410 # 8000f860 <cons>
    800002e6:	1d7000ef          	jal	80000cbc <release>
}
    800002ea:	60e2                	ld	ra,24(sp)
    800002ec:	6442                	ld	s0,16(sp)
    800002ee:	64a2                	ld	s1,8(sp)
    800002f0:	6105                	addi	sp,sp,32
    800002f2:	8082                	ret
  switch(c){
    800002f4:	07f00793          	li	a5,127
    800002f8:	0af48e63          	beq	s1,a5,800003b4 <consoleintr+0x108>
    if(c != 0 && cons.e-cons.r < INPUT_BUF_SIZE){
    800002fc:	0000f717          	auipc	a4,0xf
    80000300:	56470713          	addi	a4,a4,1380 # 8000f860 <cons>
    80000304:	0a072783          	lw	a5,160(a4)
    80000308:	09872703          	lw	a4,152(a4)
    8000030c:	9f99                	subw	a5,a5,a4
    8000030e:	07f00713          	li	a4,127
    80000312:	fcf766e3          	bltu	a4,a5,800002de <consoleintr+0x32>
      c = (c == '\r') ? '\n' : c;
    80000316:	47b5                	li	a5,13
    80000318:	0cf48563          	beq	s1,a5,800003e2 <consoleintr+0x136>
      consputc(c);
    8000031c:	8526                	mv	a0,s1
    8000031e:	f5dff0ef          	jal	8000027a <consputc>
      cons.buf[cons.e++ % INPUT_BUF_SIZE] = c;
    80000322:	0000f717          	auipc	a4,0xf
    80000326:	53e70713          	addi	a4,a4,1342 # 8000f860 <cons>
    8000032a:	0a072683          	lw	a3,160(a4)
    8000032e:	0016879b          	addiw	a5,a3,1
    80000332:	863e                	mv	a2,a5
    80000334:	0af72023          	sw	a5,160(a4)
    80000338:	07f6f693          	andi	a3,a3,127
    8000033c:	9736                	add	a4,a4,a3
    8000033e:	00970c23          	sb	s1,24(a4)
      if(c == '\n' || c == C('D') || cons.e-cons.r == INPUT_BUF_SIZE){
    80000342:	ff648713          	addi	a4,s1,-10
    80000346:	c371                	beqz	a4,8000040a <consoleintr+0x15e>
    80000348:	14f1                	addi	s1,s1,-4
    8000034a:	c0e1                	beqz	s1,8000040a <consoleintr+0x15e>
    8000034c:	0000f717          	auipc	a4,0xf
    80000350:	5ac72703          	lw	a4,1452(a4) # 8000f8f8 <cons+0x98>
    80000354:	9f99                	subw	a5,a5,a4
    80000356:	08000713          	li	a4,128
    8000035a:	f8e792e3          	bne	a5,a4,800002de <consoleintr+0x32>
    8000035e:	a075                	j	8000040a <consoleintr+0x15e>
    80000360:	e04a                	sd	s2,0(sp)
    while(cons.e != cons.w &&
    80000362:	0000f717          	auipc	a4,0xf
    80000366:	4fe70713          	addi	a4,a4,1278 # 8000f860 <cons>
    8000036a:	0a072783          	lw	a5,160(a4)
    8000036e:	09c72703          	lw	a4,156(a4)
          cons.buf[(cons.e-1) % INPUT_BUF_SIZE] != '\n'){
    80000372:	0000f497          	auipc	s1,0xf
    80000376:	4ee48493          	addi	s1,s1,1262 # 8000f860 <cons>
    while(cons.e != cons.w &&
    8000037a:	4929                	li	s2,10
    8000037c:	02f70863          	beq	a4,a5,800003ac <consoleintr+0x100>
          cons.buf[(cons.e-1) % INPUT_BUF_SIZE] != '\n'){
    80000380:	37fd                	addiw	a5,a5,-1
    80000382:	07f7f713          	andi	a4,a5,127
    80000386:	9726                	add	a4,a4,s1
    while(cons.e != cons.w &&
    80000388:	01874703          	lbu	a4,24(a4)
    8000038c:	03270263          	beq	a4,s2,800003b0 <consoleintr+0x104>
      cons.e--;
    80000390:	0af4a023          	sw	a5,160(s1)
      consputc(BACKSPACE);
    80000394:	10000513          	li	a0,256
    80000398:	ee3ff0ef          	jal	8000027a <consputc>
    while(cons.e != cons.w &&
    8000039c:	0a04a783          	lw	a5,160(s1)
    800003a0:	09c4a703          	lw	a4,156(s1)
    800003a4:	fcf71ee3          	bne	a4,a5,80000380 <consoleintr+0xd4>
    800003a8:	6902                	ld	s2,0(sp)
    800003aa:	bf15                	j	800002de <consoleintr+0x32>
    800003ac:	6902                	ld	s2,0(sp)
    800003ae:	bf05                	j	800002de <consoleintr+0x32>
    800003b0:	6902                	ld	s2,0(sp)
    800003b2:	b735                	j	800002de <consoleintr+0x32>
    if(cons.e != cons.w){
    800003b4:	0000f717          	auipc	a4,0xf
    800003b8:	4ac70713          	addi	a4,a4,1196 # 8000f860 <cons>
    800003bc:	0a072783          	lw	a5,160(a4)
    800003c0:	09c72703          	lw	a4,156(a4)
    800003c4:	f0f70de3          	beq	a4,a5,800002de <consoleintr+0x32>
      cons.e--;
    800003c8:	37fd                	addiw	a5,a5,-1
    800003ca:	0000f717          	auipc	a4,0xf
    800003ce:	52f72b23          	sw	a5,1334(a4) # 8000f900 <cons+0xa0>
      consputc(BACKSPACE);
    800003d2:	10000513          	li	a0,256
    800003d6:	ea5ff0ef          	jal	8000027a <consputc>
    800003da:	b711                	j	800002de <consoleintr+0x32>
    if(c != 0 && cons.e-cons.r < INPUT_BUF_SIZE){
    800003dc:	f00481e3          	beqz	s1,800002de <consoleintr+0x32>
    800003e0:	bf31                	j	800002fc <consoleintr+0x50>
      consputc(c);
    800003e2:	4529                	li	a0,10
    800003e4:	e97ff0ef          	jal	8000027a <consputc>
      cons.buf[cons.e++ % INPUT_BUF_SIZE] = c;
    800003e8:	0000f797          	auipc	a5,0xf
    800003ec:	47878793          	addi	a5,a5,1144 # 8000f860 <cons>
    800003f0:	0a07a703          	lw	a4,160(a5)
    800003f4:	0017069b          	addiw	a3,a4,1
    800003f8:	8636                	mv	a2,a3
    800003fa:	0ad7a023          	sw	a3,160(a5)
    800003fe:	07f77713          	andi	a4,a4,127
    80000402:	97ba                	add	a5,a5,a4
    80000404:	4729                	li	a4,10
    80000406:	00e78c23          	sb	a4,24(a5)
        cons.w = cons.e;
    8000040a:	0000f797          	auipc	a5,0xf
    8000040e:	4ec7a923          	sw	a2,1266(a5) # 8000f8fc <cons+0x9c>
        wakeup(&cons.r);
    80000412:	0000f517          	auipc	a0,0xf
    80000416:	4e650513          	addi	a0,a0,1254 # 8000f8f8 <cons+0x98>
    8000041a:	35f010ef          	jal	80001f78 <wakeup>
    8000041e:	b5c1                	j	800002de <consoleintr+0x32>

0000000080000420 <consoleinit>:

void
consoleinit(void)
{
    80000420:	1141                	addi	sp,sp,-16
    80000422:	e406                	sd	ra,8(sp)
    80000424:	e022                	sd	s0,0(sp)
    80000426:	0800                	addi	s0,sp,16
  initlock(&cons.lock, "cons");
    80000428:	00007597          	auipc	a1,0x7
    8000042c:	bd858593          	addi	a1,a1,-1064 # 80007000 <etext>
    80000430:	0000f517          	auipc	a0,0xf
    80000434:	43050513          	addi	a0,a0,1072 # 8000f860 <cons>
    80000438:	766000ef          	jal	80000b9e <initlock>

  uartinit();
    8000043c:	448000ef          	jal	80000884 <uartinit>

  // connect read and write system calls
  // to consoleread and consolewrite.
  devsw[CONSOLE].read = consoleread;
    80000440:	0001f797          	auipc	a5,0x1f
    80000444:	59078793          	addi	a5,a5,1424 # 8001f9d0 <devsw>
    80000448:	00000717          	auipc	a4,0x0
    8000044c:	d2e70713          	addi	a4,a4,-722 # 80000176 <consoleread>
    80000450:	eb98                	sd	a4,16(a5)
  devsw[CONSOLE].write = consolewrite;
    80000452:	00000717          	auipc	a4,0x0
    80000456:	c8270713          	addi	a4,a4,-894 # 800000d4 <consolewrite>
    8000045a:	ef98                	sd	a4,24(a5)
}
    8000045c:	60a2                	ld	ra,8(sp)
    8000045e:	6402                	ld	s0,0(sp)
    80000460:	0141                	addi	sp,sp,16
    80000462:	8082                	ret

0000000080000464 <printint>:

static char digits[] = "0123456789abcdef";

static void
printint(long long xx, int base, int sign)
{
    80000464:	7139                	addi	sp,sp,-64
    80000466:	fc06                	sd	ra,56(sp)
    80000468:	f822                	sd	s0,48(sp)
    8000046a:	f04a                	sd	s2,32(sp)
    8000046c:	0080                	addi	s0,sp,64
  char buf[20];
  int i;
  unsigned long long x;

  if(sign && (sign = (xx < 0)))
    8000046e:	c219                	beqz	a2,80000474 <printint+0x10>
    80000470:	08054163          	bltz	a0,800004f2 <printint+0x8e>
    x = -xx;
  else
    x = xx;
    80000474:	4301                	li	t1,0

  i = 0;
    80000476:	fc840913          	addi	s2,s0,-56
    x = xx;
    8000047a:	86ca                	mv	a3,s2
  i = 0;
    8000047c:	4701                	li	a4,0
  do {
    buf[i++] = digits[x % base];
    8000047e:	00007817          	auipc	a6,0x7
    80000482:	29280813          	addi	a6,a6,658 # 80007710 <digits>
    80000486:	88ba                	mv	a7,a4
    80000488:	0017061b          	addiw	a2,a4,1
    8000048c:	8732                	mv	a4,a2
    8000048e:	02b577b3          	remu	a5,a0,a1
    80000492:	97c2                	add	a5,a5,a6
    80000494:	0007c783          	lbu	a5,0(a5)
    80000498:	00f68023          	sb	a5,0(a3)
  } while((x /= base) != 0);
    8000049c:	87aa                	mv	a5,a0
    8000049e:	02b55533          	divu	a0,a0,a1
    800004a2:	0685                	addi	a3,a3,1
    800004a4:	feb7f1e3          	bgeu	a5,a1,80000486 <printint+0x22>

  if(sign)
    800004a8:	00030c63          	beqz	t1,800004c0 <printint+0x5c>
    buf[i++] = '-';
    800004ac:	fe060793          	addi	a5,a2,-32
    800004b0:	00878633          	add	a2,a5,s0
    800004b4:	02d00793          	li	a5,45
    800004b8:	fef60423          	sb	a5,-24(a2)
    800004bc:	0028871b          	addiw	a4,a7,2

  while(--i >= 0)
    800004c0:	02e05463          	blez	a4,800004e8 <printint+0x84>
    800004c4:	f426                	sd	s1,40(sp)
    800004c6:	377d                	addiw	a4,a4,-1
    800004c8:	00e904b3          	add	s1,s2,a4
    800004cc:	197d                	addi	s2,s2,-1
    800004ce:	993a                	add	s2,s2,a4
    800004d0:	1702                	slli	a4,a4,0x20
    800004d2:	9301                	srli	a4,a4,0x20
    800004d4:	40e90933          	sub	s2,s2,a4
    consputc(buf[i]);
    800004d8:	0004c503          	lbu	a0,0(s1)
    800004dc:	d9fff0ef          	jal	8000027a <consputc>
  while(--i >= 0)
    800004e0:	14fd                	addi	s1,s1,-1
    800004e2:	ff249be3          	bne	s1,s2,800004d8 <printint+0x74>
    800004e6:	74a2                	ld	s1,40(sp)
}
    800004e8:	70e2                	ld	ra,56(sp)
    800004ea:	7442                	ld	s0,48(sp)
    800004ec:	7902                	ld	s2,32(sp)
    800004ee:	6121                	addi	sp,sp,64
    800004f0:	8082                	ret
    x = -xx;
    800004f2:	40a00533          	neg	a0,a0
  if(sign && (sign = (xx < 0)))
    800004f6:	4305                	li	t1,1
    x = -xx;
    800004f8:	bfbd                	j	80000476 <printint+0x12>

00000000800004fa <printf>:
}

// Print to the console.
int
printf(char *fmt, ...)
{
    800004fa:	7131                	addi	sp,sp,-192
    800004fc:	fc86                	sd	ra,120(sp)
    800004fe:	f8a2                	sd	s0,112(sp)
    80000500:	f0ca                	sd	s2,96(sp)
    80000502:	0100                	addi	s0,sp,128
    80000504:	892a                	mv	s2,a0
    80000506:	e40c                	sd	a1,8(s0)
    80000508:	e810                	sd	a2,16(s0)
    8000050a:	ec14                	sd	a3,24(s0)
    8000050c:	f018                	sd	a4,32(s0)
    8000050e:	f41c                	sd	a5,40(s0)
    80000510:	03043823          	sd	a6,48(s0)
    80000514:	03143c23          	sd	a7,56(s0)
  va_list ap;
  int i, cx, c0, c1, c2;
  char *s;

  if(panicking == 0)
    80000518:	00007797          	auipc	a5,0x7
    8000051c:	31c7a783          	lw	a5,796(a5) # 80007834 <panicking>
    80000520:	cf9d                	beqz	a5,8000055e <printf+0x64>
    acquire(&pr.lock);

  va_start(ap, fmt);
    80000522:	00840793          	addi	a5,s0,8
    80000526:	f8f43423          	sd	a5,-120(s0)
  for(i = 0; (cx = fmt[i] & 0xff) != 0; i++){
    8000052a:	00094503          	lbu	a0,0(s2)
    8000052e:	22050663          	beqz	a0,8000075a <printf+0x260>
    80000532:	f4a6                	sd	s1,104(sp)
    80000534:	ecce                	sd	s3,88(sp)
    80000536:	e8d2                	sd	s4,80(sp)
    80000538:	e4d6                	sd	s5,72(sp)
    8000053a:	e0da                	sd	s6,64(sp)
    8000053c:	fc5e                	sd	s7,56(sp)
    8000053e:	f862                	sd	s8,48(sp)
    80000540:	f06a                	sd	s10,32(sp)
    80000542:	ec6e                	sd	s11,24(sp)
    80000544:	4a01                	li	s4,0
    if(cx != '%'){
    80000546:	02500993          	li	s3,37
      printint(va_arg(ap, uint64), 10, 1);
      i += 1;
    } else if(c0 == 'l' && c1 == 'l' && c2 == 'd'){
      printint(va_arg(ap, uint64), 10, 1);
      i += 2;
    } else if(c0 == 'u'){
    8000054a:	07500c13          	li	s8,117
      printint(va_arg(ap, uint64), 10, 0);
      i += 1;
    } else if(c0 == 'l' && c1 == 'l' && c2 == 'u'){
      printint(va_arg(ap, uint64), 10, 0);
      i += 2;
    } else if(c0 == 'x'){
    8000054e:	07800d13          	li	s10,120
      printint(va_arg(ap, uint64), 16, 0);
      i += 1;
    } else if(c0 == 'l' && c1 == 'l' && c2 == 'x'){
      printint(va_arg(ap, uint64), 16, 0);
      i += 2;
    } else if(c0 == 'p'){
    80000552:	07000d93          	li	s11,112
      printint(va_arg(ap, uint64), 10, 0);
    80000556:	4b29                	li	s6,10
    if(c0 == 'd'){
    80000558:	06400b93          	li	s7,100
    8000055c:	a015                	j	80000580 <printf+0x86>
    acquire(&pr.lock);
    8000055e:	0000f517          	auipc	a0,0xf
    80000562:	3aa50513          	addi	a0,a0,938 # 8000f908 <pr>
    80000566:	6c2000ef          	jal	80000c28 <acquire>
    8000056a:	bf65                	j	80000522 <printf+0x28>
      consputc(cx);
    8000056c:	d0fff0ef          	jal	8000027a <consputc>
      continue;
    80000570:	84d2                	mv	s1,s4
  for(i = 0; (cx = fmt[i] & 0xff) != 0; i++){
    80000572:	2485                	addiw	s1,s1,1
    80000574:	8a26                	mv	s4,s1
    80000576:	94ca                	add	s1,s1,s2
    80000578:	0004c503          	lbu	a0,0(s1)
    8000057c:	1c050663          	beqz	a0,80000748 <printf+0x24e>
    if(cx != '%'){
    80000580:	ff3516e3          	bne	a0,s3,8000056c <printf+0x72>
    i++;
    80000584:	001a079b          	addiw	a5,s4,1
    80000588:	84be                	mv	s1,a5
    c0 = fmt[i+0] & 0xff;
    8000058a:	00f90733          	add	a4,s2,a5
    8000058e:	00074a83          	lbu	s5,0(a4)
    if(c0) c1 = fmt[i+1] & 0xff;
    80000592:	200a8963          	beqz	s5,800007a4 <printf+0x2aa>
    80000596:	00174683          	lbu	a3,1(a4)
    if(c1) c2 = fmt[i+2] & 0xff;
    8000059a:	1e068c63          	beqz	a3,80000792 <printf+0x298>
    if(c0 == 'd'){
    8000059e:	037a8863          	beq	s5,s7,800005ce <printf+0xd4>
    } else if(c0 == 'l' && c1 == 'd'){
    800005a2:	f94a8713          	addi	a4,s5,-108
    800005a6:	00173713          	seqz	a4,a4
    800005aa:	f9c68613          	addi	a2,a3,-100
    800005ae:	ee05                	bnez	a2,800005e6 <printf+0xec>
    800005b0:	cb1d                	beqz	a4,800005e6 <printf+0xec>
      printint(va_arg(ap, uint64), 10, 1);
    800005b2:	f8843783          	ld	a5,-120(s0)
    800005b6:	00878713          	addi	a4,a5,8
    800005ba:	f8e43423          	sd	a4,-120(s0)
    800005be:	4605                	li	a2,1
    800005c0:	85da                	mv	a1,s6
    800005c2:	6388                	ld	a0,0(a5)
    800005c4:	ea1ff0ef          	jal	80000464 <printint>
      i += 1;
    800005c8:	002a049b          	addiw	s1,s4,2
    800005cc:	b75d                	j	80000572 <printf+0x78>
      printint(va_arg(ap, int), 10, 1);
    800005ce:	f8843783          	ld	a5,-120(s0)
    800005d2:	00878713          	addi	a4,a5,8
    800005d6:	f8e43423          	sd	a4,-120(s0)
    800005da:	4605                	li	a2,1
    800005dc:	85da                	mv	a1,s6
    800005de:	4388                	lw	a0,0(a5)
    800005e0:	e85ff0ef          	jal	80000464 <printint>
    800005e4:	b779                	j	80000572 <printf+0x78>
    if(c1) c2 = fmt[i+2] & 0xff;
    800005e6:	97ca                	add	a5,a5,s2
    800005e8:	8636                	mv	a2,a3
    800005ea:	0027c683          	lbu	a3,2(a5)
    800005ee:	a2c9                	j	800007b0 <printf+0x2b6>
      printint(va_arg(ap, uint64), 10, 1);
    800005f0:	f8843783          	ld	a5,-120(s0)
    800005f4:	00878713          	addi	a4,a5,8
    800005f8:	f8e43423          	sd	a4,-120(s0)
    800005fc:	4605                	li	a2,1
    800005fe:	45a9                	li	a1,10
    80000600:	6388                	ld	a0,0(a5)
    80000602:	e63ff0ef          	jal	80000464 <printint>
      i += 2;
    80000606:	003a049b          	addiw	s1,s4,3
    8000060a:	b7a5                	j	80000572 <printf+0x78>
      printint(va_arg(ap, uint32), 10, 0);
    8000060c:	f8843783          	ld	a5,-120(s0)
    80000610:	00878713          	addi	a4,a5,8
    80000614:	f8e43423          	sd	a4,-120(s0)
    80000618:	4601                	li	a2,0
    8000061a:	85da                	mv	a1,s6
    8000061c:	0007e503          	lwu	a0,0(a5)
    80000620:	e45ff0ef          	jal	80000464 <printint>
    80000624:	b7b9                	j	80000572 <printf+0x78>
      printint(va_arg(ap, uint64), 10, 0);
    80000626:	f8843783          	ld	a5,-120(s0)
    8000062a:	00878713          	addi	a4,a5,8
    8000062e:	f8e43423          	sd	a4,-120(s0)
    80000632:	4601                	li	a2,0
    80000634:	85da                	mv	a1,s6
    80000636:	6388                	ld	a0,0(a5)
    80000638:	e2dff0ef          	jal	80000464 <printint>
      i += 1;
    8000063c:	002a049b          	addiw	s1,s4,2
    80000640:	bf0d                	j	80000572 <printf+0x78>
      printint(va_arg(ap, uint64), 10, 0);
    80000642:	f8843783          	ld	a5,-120(s0)
    80000646:	00878713          	addi	a4,a5,8
    8000064a:	f8e43423          	sd	a4,-120(s0)
    8000064e:	4601                	li	a2,0
    80000650:	45a9                	li	a1,10
    80000652:	6388                	ld	a0,0(a5)
    80000654:	e11ff0ef          	jal	80000464 <printint>
      i += 2;
    80000658:	003a049b          	addiw	s1,s4,3
    8000065c:	bf19                	j	80000572 <printf+0x78>
      printint(va_arg(ap, uint32), 16, 0);
    8000065e:	f8843783          	ld	a5,-120(s0)
    80000662:	00878713          	addi	a4,a5,8
    80000666:	f8e43423          	sd	a4,-120(s0)
    8000066a:	4601                	li	a2,0
    8000066c:	45c1                	li	a1,16
    8000066e:	0007e503          	lwu	a0,0(a5)
    80000672:	df3ff0ef          	jal	80000464 <printint>
    80000676:	bdf5                	j	80000572 <printf+0x78>
      printint(va_arg(ap, uint64), 16, 0);
    80000678:	f8843783          	ld	a5,-120(s0)
    8000067c:	00878713          	addi	a4,a5,8
    80000680:	f8e43423          	sd	a4,-120(s0)
    80000684:	45c1                	li	a1,16
    80000686:	6388                	ld	a0,0(a5)
    80000688:	dddff0ef          	jal	80000464 <printint>
      i += 1;
    8000068c:	002a049b          	addiw	s1,s4,2
    80000690:	b5cd                	j	80000572 <printf+0x78>
      printint(va_arg(ap, uint64), 16, 0);
    80000692:	f8843783          	ld	a5,-120(s0)
    80000696:	00878713          	addi	a4,a5,8
    8000069a:	f8e43423          	sd	a4,-120(s0)
    8000069e:	4601                	li	a2,0
    800006a0:	45c1                	li	a1,16
    800006a2:	6388                	ld	a0,0(a5)
    800006a4:	dc1ff0ef          	jal	80000464 <printint>
      i += 2;
    800006a8:	003a049b          	addiw	s1,s4,3
    800006ac:	b5d9                	j	80000572 <printf+0x78>
    800006ae:	f466                	sd	s9,40(sp)
      printptr(va_arg(ap, uint64));
    800006b0:	f8843783          	ld	a5,-120(s0)
    800006b4:	00878713          	addi	a4,a5,8
    800006b8:	f8e43423          	sd	a4,-120(s0)
    800006bc:	0007ba83          	ld	s5,0(a5)
  consputc('0');
    800006c0:	03000513          	li	a0,48
    800006c4:	bb7ff0ef          	jal	8000027a <consputc>
  consputc('x');
    800006c8:	07800513          	li	a0,120
    800006cc:	bafff0ef          	jal	8000027a <consputc>
    800006d0:	4a41                	li	s4,16
    consputc(digits[x >> (sizeof(uint64) * 8 - 4)]);
    800006d2:	00007c97          	auipc	s9,0x7
    800006d6:	03ec8c93          	addi	s9,s9,62 # 80007710 <digits>
    800006da:	03cad793          	srli	a5,s5,0x3c
    800006de:	97e6                	add	a5,a5,s9
    800006e0:	0007c503          	lbu	a0,0(a5)
    800006e4:	b97ff0ef          	jal	8000027a <consputc>
  for (i = 0; i < (sizeof(uint64) * 2); i++, x <<= 4)
    800006e8:	0a92                	slli	s5,s5,0x4
    800006ea:	3a7d                	addiw	s4,s4,-1
    800006ec:	fe0a17e3          	bnez	s4,800006da <printf+0x1e0>
    800006f0:	7ca2                	ld	s9,40(sp)
    800006f2:	b541                	j	80000572 <printf+0x78>
    } else if(c0 == 'c'){
      consputc(va_arg(ap, uint));
    800006f4:	f8843783          	ld	a5,-120(s0)
    800006f8:	00878713          	addi	a4,a5,8
    800006fc:	f8e43423          	sd	a4,-120(s0)
    80000700:	4388                	lw	a0,0(a5)
    80000702:	b79ff0ef          	jal	8000027a <consputc>
    80000706:	b5b5                	j	80000572 <printf+0x78>
    } else if(c0 == 's'){
      if((s = va_arg(ap, char*)) == 0)
    80000708:	f8843783          	ld	a5,-120(s0)
    8000070c:	00878713          	addi	a4,a5,8
    80000710:	f8e43423          	sd	a4,-120(s0)
    80000714:	0007ba03          	ld	s4,0(a5)
    80000718:	000a0d63          	beqz	s4,80000732 <printf+0x238>
        s = "(null)";
      for(; *s; s++)
    8000071c:	000a4503          	lbu	a0,0(s4)
    80000720:	e40509e3          	beqz	a0,80000572 <printf+0x78>
        consputc(*s);
    80000724:	b57ff0ef          	jal	8000027a <consputc>
      for(; *s; s++)
    80000728:	0a05                	addi	s4,s4,1
    8000072a:	000a4503          	lbu	a0,0(s4)
    8000072e:	f97d                	bnez	a0,80000724 <printf+0x22a>
    80000730:	b589                	j	80000572 <printf+0x78>
        s = "(null)";
    80000732:	00007a17          	auipc	s4,0x7
    80000736:	8d6a0a13          	addi	s4,s4,-1834 # 80007008 <etext+0x8>
      for(; *s; s++)
    8000073a:	02800513          	li	a0,40
    8000073e:	b7dd                	j	80000724 <printf+0x22a>
    } else if(c0 == '%'){
      consputc('%');
    80000740:	8556                	mv	a0,s5
    80000742:	b39ff0ef          	jal	8000027a <consputc>
    80000746:	b535                	j	80000572 <printf+0x78>
    80000748:	74a6                	ld	s1,104(sp)
    8000074a:	69e6                	ld	s3,88(sp)
    8000074c:	6a46                	ld	s4,80(sp)
    8000074e:	6aa6                	ld	s5,72(sp)
    80000750:	6b06                	ld	s6,64(sp)
    80000752:	7be2                	ld	s7,56(sp)
    80000754:	7c42                	ld	s8,48(sp)
    80000756:	7d02                	ld	s10,32(sp)
    80000758:	6de2                	ld	s11,24(sp)
    }

  }
  va_end(ap);

  if(panicking == 0)
    8000075a:	00007797          	auipc	a5,0x7
    8000075e:	0da7a783          	lw	a5,218(a5) # 80007834 <panicking>
    80000762:	c38d                	beqz	a5,80000784 <printf+0x28a>
    release(&pr.lock);

  return 0;
}
    80000764:	4501                	li	a0,0
    80000766:	70e6                	ld	ra,120(sp)
    80000768:	7446                	ld	s0,112(sp)
    8000076a:	7906                	ld	s2,96(sp)
    8000076c:	6129                	addi	sp,sp,192
    8000076e:	8082                	ret
    80000770:	74a6                	ld	s1,104(sp)
    80000772:	69e6                	ld	s3,88(sp)
    80000774:	6a46                	ld	s4,80(sp)
    80000776:	6aa6                	ld	s5,72(sp)
    80000778:	6b06                	ld	s6,64(sp)
    8000077a:	7be2                	ld	s7,56(sp)
    8000077c:	7c42                	ld	s8,48(sp)
    8000077e:	7d02                	ld	s10,32(sp)
    80000780:	6de2                	ld	s11,24(sp)
    80000782:	bfe1                	j	8000075a <printf+0x260>
    release(&pr.lock);
    80000784:	0000f517          	auipc	a0,0xf
    80000788:	18450513          	addi	a0,a0,388 # 8000f908 <pr>
    8000078c:	530000ef          	jal	80000cbc <release>
  return 0;
    80000790:	bfd1                	j	80000764 <printf+0x26a>
    if(c0 == 'd'){
    80000792:	e37a8ee3          	beq	s5,s7,800005ce <printf+0xd4>
    } else if(c0 == 'l' && c1 == 'd'){
    80000796:	f94a8713          	addi	a4,s5,-108
    8000079a:	00173713          	seqz	a4,a4
    8000079e:	8636                	mv	a2,a3
    } else if(c0 == 'l' && c1 == 'l' && c2 == 'd'){
    800007a0:	4781                	li	a5,0
    800007a2:	a00d                	j	800007c4 <printf+0x2ca>
    } else if(c0 == 'l' && c1 == 'd'){
    800007a4:	f94a8713          	addi	a4,s5,-108
    800007a8:	00173713          	seqz	a4,a4
    c1 = c2 = 0;
    800007ac:	8656                	mv	a2,s5
    800007ae:	86d6                	mv	a3,s5
    } else if(c0 == 'l' && c1 == 'l' && c2 == 'd'){
    800007b0:	f9460793          	addi	a5,a2,-108
    800007b4:	0017b793          	seqz	a5,a5
    800007b8:	8ff9                	and	a5,a5,a4
    800007ba:	f9c68593          	addi	a1,a3,-100
    800007be:	e199                	bnez	a1,800007c4 <printf+0x2ca>
    800007c0:	e20798e3          	bnez	a5,800005f0 <printf+0xf6>
    } else if(c0 == 'u'){
    800007c4:	e58a84e3          	beq	s5,s8,8000060c <printf+0x112>
    } else if(c0 == 'l' && c1 == 'u'){
    800007c8:	f8b60593          	addi	a1,a2,-117
    800007cc:	e199                	bnez	a1,800007d2 <printf+0x2d8>
    800007ce:	e4071ce3          	bnez	a4,80000626 <printf+0x12c>
    } else if(c0 == 'l' && c1 == 'l' && c2 == 'u'){
    800007d2:	f8b68593          	addi	a1,a3,-117
    800007d6:	e199                	bnez	a1,800007dc <printf+0x2e2>
    800007d8:	e60795e3          	bnez	a5,80000642 <printf+0x148>
    } else if(c0 == 'x'){
    800007dc:	e9aa81e3          	beq	s5,s10,8000065e <printf+0x164>
    } else if(c0 == 'l' && c1 == 'x'){
    800007e0:	f8860613          	addi	a2,a2,-120
    800007e4:	e219                	bnez	a2,800007ea <printf+0x2f0>
    800007e6:	e80719e3          	bnez	a4,80000678 <printf+0x17e>
    } else if(c0 == 'l' && c1 == 'l' && c2 == 'x'){
    800007ea:	f8868693          	addi	a3,a3,-120
    800007ee:	e299                	bnez	a3,800007f4 <printf+0x2fa>
    800007f0:	ea0791e3          	bnez	a5,80000692 <printf+0x198>
    } else if(c0 == 'p'){
    800007f4:	ebba8de3          	beq	s5,s11,800006ae <printf+0x1b4>
    } else if(c0 == 'c'){
    800007f8:	06300793          	li	a5,99
    800007fc:	eefa8ce3          	beq	s5,a5,800006f4 <printf+0x1fa>
    } else if(c0 == 's'){
    80000800:	07300793          	li	a5,115
    80000804:	f0fa82e3          	beq	s5,a5,80000708 <printf+0x20e>
    } else if(c0 == '%'){
    80000808:	02500793          	li	a5,37
    8000080c:	f2fa8ae3          	beq	s5,a5,80000740 <printf+0x246>
    } else if(c0 == 0){
    80000810:	f60a80e3          	beqz	s5,80000770 <printf+0x276>
      consputc('%');
    80000814:	02500513          	li	a0,37
    80000818:	a63ff0ef          	jal	8000027a <consputc>
      consputc(c0);
    8000081c:	8556                	mv	a0,s5
    8000081e:	a5dff0ef          	jal	8000027a <consputc>
    80000822:	bb81                	j	80000572 <printf+0x78>

0000000080000824 <panic>:

void
panic(char *s)
{
    80000824:	1101                	addi	sp,sp,-32
    80000826:	ec06                	sd	ra,24(sp)
    80000828:	e822                	sd	s0,16(sp)
    8000082a:	e426                	sd	s1,8(sp)
    8000082c:	e04a                	sd	s2,0(sp)
    8000082e:	1000                	addi	s0,sp,32
    80000830:	892a                	mv	s2,a0
  panicking = 1;
    80000832:	4485                	li	s1,1
    80000834:	00007797          	auipc	a5,0x7
    80000838:	0097a023          	sw	s1,0(a5) # 80007834 <panicking>
  printf("panic: ");
    8000083c:	00006517          	auipc	a0,0x6
    80000840:	7dc50513          	addi	a0,a0,2012 # 80007018 <etext+0x18>
    80000844:	cb7ff0ef          	jal	800004fa <printf>
  printf("%s\n", s);
    80000848:	85ca                	mv	a1,s2
    8000084a:	00006517          	auipc	a0,0x6
    8000084e:	7d650513          	addi	a0,a0,2006 # 80007020 <etext+0x20>
    80000852:	ca9ff0ef          	jal	800004fa <printf>
  panicked = 1; // freeze uart output from other CPUs
    80000856:	00007797          	auipc	a5,0x7
    8000085a:	fc97ad23          	sw	s1,-38(a5) # 80007830 <panicked>
  for(;;)
    8000085e:	a001                	j	8000085e <panic+0x3a>

0000000080000860 <printfinit>:
    ;
}

void
printfinit(void)
{
    80000860:	1141                	addi	sp,sp,-16
    80000862:	e406                	sd	ra,8(sp)
    80000864:	e022                	sd	s0,0(sp)
    80000866:	0800                	addi	s0,sp,16
  initlock(&pr.lock, "pr");
    80000868:	00006597          	auipc	a1,0x6
    8000086c:	7c058593          	addi	a1,a1,1984 # 80007028 <etext+0x28>
    80000870:	0000f517          	auipc	a0,0xf
    80000874:	09850513          	addi	a0,a0,152 # 8000f908 <pr>
    80000878:	326000ef          	jal	80000b9e <initlock>
}
    8000087c:	60a2                	ld	ra,8(sp)
    8000087e:	6402                	ld	s0,0(sp)
    80000880:	0141                	addi	sp,sp,16
    80000882:	8082                	ret

0000000080000884 <uartinit>:
extern volatile int panicking; // from printf.c
extern volatile int panicked; // from printf.c

void
uartinit(void)
{
    80000884:	1141                	addi	sp,sp,-16
    80000886:	e406                	sd	ra,8(sp)
    80000888:	e022                	sd	s0,0(sp)
    8000088a:	0800                	addi	s0,sp,16
  // disable interrupts.
  WriteReg(IER, 0x00);
    8000088c:	100007b7          	lui	a5,0x10000
    80000890:	000780a3          	sb	zero,1(a5) # 10000001 <_entry-0x6fffffff>

  // special mode to set baud rate.
  WriteReg(LCR, LCR_BAUD_LATCH);
    80000894:	10000737          	lui	a4,0x10000
    80000898:	f8000693          	li	a3,-128
    8000089c:	00d701a3          	sb	a3,3(a4) # 10000003 <_entry-0x6ffffffd>

  // LSB for baud rate of 38.4K.
  WriteReg(0, 0x03);
    800008a0:	468d                	li	a3,3
    800008a2:	10000637          	lui	a2,0x10000
    800008a6:	00d60023          	sb	a3,0(a2) # 10000000 <_entry-0x70000000>

  // MSB for baud rate of 38.4K.
  WriteReg(1, 0x00);
    800008aa:	000780a3          	sb	zero,1(a5)

  // leave set-baud mode,
  // and set word length to 8 bits, no parity.
  WriteReg(LCR, LCR_EIGHT_BITS);
    800008ae:	00d701a3          	sb	a3,3(a4)

  // reset and enable FIFOs.
  WriteReg(FCR, FCR_FIFO_ENABLE | FCR_FIFO_CLEAR);
    800008b2:	8732                	mv	a4,a2
    800008b4:	461d                	li	a2,7
    800008b6:	00c70123          	sb	a2,2(a4)

  // enable transmit and receive interrupts.
  WriteReg(IER, IER_TX_ENABLE | IER_RX_ENABLE);
    800008ba:	00d780a3          	sb	a3,1(a5)

  initlock(&tx_lock, "uart");
    800008be:	00006597          	auipc	a1,0x6
    800008c2:	77258593          	addi	a1,a1,1906 # 80007030 <etext+0x30>
    800008c6:	0000f517          	auipc	a0,0xf
    800008ca:	05a50513          	addi	a0,a0,90 # 8000f920 <tx_lock>
    800008ce:	2d0000ef          	jal	80000b9e <initlock>
}
    800008d2:	60a2                	ld	ra,8(sp)
    800008d4:	6402                	ld	s0,0(sp)
    800008d6:	0141                	addi	sp,sp,16
    800008d8:	8082                	ret

00000000800008da <uartwrite>:
// transmit buf[] to the uart. it blocks if the
// uart is busy, so it cannot be called from
// interrupts, only from write() system calls.
void
uartwrite(char buf[], int n)
{
    800008da:	715d                	addi	sp,sp,-80
    800008dc:	e486                	sd	ra,72(sp)
    800008de:	e0a2                	sd	s0,64(sp)
    800008e0:	fc26                	sd	s1,56(sp)
    800008e2:	ec56                	sd	s5,24(sp)
    800008e4:	0880                	addi	s0,sp,80
    800008e6:	8aaa                	mv	s5,a0
    800008e8:	84ae                	mv	s1,a1
  acquire(&tx_lock);
    800008ea:	0000f517          	auipc	a0,0xf
    800008ee:	03650513          	addi	a0,a0,54 # 8000f920 <tx_lock>
    800008f2:	336000ef          	jal	80000c28 <acquire>

  int i = 0;
  while(i < n){ 
    800008f6:	06905063          	blez	s1,80000956 <uartwrite+0x7c>
    800008fa:	f84a                	sd	s2,48(sp)
    800008fc:	f44e                	sd	s3,40(sp)
    800008fe:	f052                	sd	s4,32(sp)
    80000900:	e85a                	sd	s6,16(sp)
    80000902:	e45e                	sd	s7,8(sp)
    80000904:	8a56                	mv	s4,s5
    80000906:	9aa6                	add	s5,s5,s1
    while(tx_busy != 0){
    80000908:	00007497          	auipc	s1,0x7
    8000090c:	f3448493          	addi	s1,s1,-204 # 8000783c <tx_busy>
      // wait for a UART transmit-complete interrupt
      // to set tx_busy to 0.
      sleep(&tx_chan, &tx_lock);
    80000910:	0000f997          	auipc	s3,0xf
    80000914:	01098993          	addi	s3,s3,16 # 8000f920 <tx_lock>
    80000918:	00007917          	auipc	s2,0x7
    8000091c:	f2090913          	addi	s2,s2,-224 # 80007838 <tx_chan>
    }   
      
    WriteReg(THR, buf[i]);
    80000920:	10000bb7          	lui	s7,0x10000
    i += 1;
    tx_busy = 1;
    80000924:	4b05                	li	s6,1
    80000926:	a005                	j	80000946 <uartwrite+0x6c>
      sleep(&tx_chan, &tx_lock);
    80000928:	85ce                	mv	a1,s3
    8000092a:	854a                	mv	a0,s2
    8000092c:	600010ef          	jal	80001f2c <sleep>
    while(tx_busy != 0){
    80000930:	409c                	lw	a5,0(s1)
    80000932:	fbfd                	bnez	a5,80000928 <uartwrite+0x4e>
    WriteReg(THR, buf[i]);
    80000934:	000a4783          	lbu	a5,0(s4)
    80000938:	00fb8023          	sb	a5,0(s7) # 10000000 <_entry-0x70000000>
    tx_busy = 1;
    8000093c:	0164a023          	sw	s6,0(s1)
  while(i < n){ 
    80000940:	0a05                	addi	s4,s4,1
    80000942:	015a0563          	beq	s4,s5,8000094c <uartwrite+0x72>
    while(tx_busy != 0){
    80000946:	409c                	lw	a5,0(s1)
    80000948:	f3e5                	bnez	a5,80000928 <uartwrite+0x4e>
    8000094a:	b7ed                	j	80000934 <uartwrite+0x5a>
    8000094c:	7942                	ld	s2,48(sp)
    8000094e:	79a2                	ld	s3,40(sp)
    80000950:	7a02                	ld	s4,32(sp)
    80000952:	6b42                	ld	s6,16(sp)
    80000954:	6ba2                	ld	s7,8(sp)
  }

  release(&tx_lock);
    80000956:	0000f517          	auipc	a0,0xf
    8000095a:	fca50513          	addi	a0,a0,-54 # 8000f920 <tx_lock>
    8000095e:	35e000ef          	jal	80000cbc <release>
}
    80000962:	60a6                	ld	ra,72(sp)
    80000964:	6406                	ld	s0,64(sp)
    80000966:	74e2                	ld	s1,56(sp)
    80000968:	6ae2                	ld	s5,24(sp)
    8000096a:	6161                	addi	sp,sp,80
    8000096c:	8082                	ret

000000008000096e <uartputc_sync>:
// interrupts, for use by kernel printf() and
// to echo characters. it spins waiting for the uart's
// output register to be empty.
void
uartputc_sync(int c)
{
    8000096e:	1101                	addi	sp,sp,-32
    80000970:	ec06                	sd	ra,24(sp)
    80000972:	e822                	sd	s0,16(sp)
    80000974:	e426                	sd	s1,8(sp)
    80000976:	1000                	addi	s0,sp,32
    80000978:	84aa                	mv	s1,a0
  if(panicking == 0)
    8000097a:	00007797          	auipc	a5,0x7
    8000097e:	eba7a783          	lw	a5,-326(a5) # 80007834 <panicking>
    80000982:	cf95                	beqz	a5,800009be <uartputc_sync+0x50>
    push_off();

  if(panicked){
    80000984:	00007797          	auipc	a5,0x7
    80000988:	eac7a783          	lw	a5,-340(a5) # 80007830 <panicked>
    8000098c:	ef85                	bnez	a5,800009c4 <uartputc_sync+0x56>
    for(;;)
      ;
  }

  // wait for Transmit Holding Empty to be set in LSR.
  while((ReadReg(LSR) & LSR_TX_IDLE) == 0)
    8000098e:	10000737          	lui	a4,0x10000
    80000992:	0715                	addi	a4,a4,5 # 10000005 <_entry-0x6ffffffb>
    80000994:	00074783          	lbu	a5,0(a4)
    80000998:	0207f793          	andi	a5,a5,32
    8000099c:	dfe5                	beqz	a5,80000994 <uartputc_sync+0x26>
    ;
  WriteReg(THR, c);
    8000099e:	0ff4f513          	zext.b	a0,s1
    800009a2:	100007b7          	lui	a5,0x10000
    800009a6:	00a78023          	sb	a0,0(a5) # 10000000 <_entry-0x70000000>

  if(panicking == 0)
    800009aa:	00007797          	auipc	a5,0x7
    800009ae:	e8a7a783          	lw	a5,-374(a5) # 80007834 <panicking>
    800009b2:	cb91                	beqz	a5,800009c6 <uartputc_sync+0x58>
    pop_off();
}
    800009b4:	60e2                	ld	ra,24(sp)
    800009b6:	6442                	ld	s0,16(sp)
    800009b8:	64a2                	ld	s1,8(sp)
    800009ba:	6105                	addi	sp,sp,32
    800009bc:	8082                	ret
    push_off();
    800009be:	226000ef          	jal	80000be4 <push_off>
    800009c2:	b7c9                	j	80000984 <uartputc_sync+0x16>
    for(;;)
    800009c4:	a001                	j	800009c4 <uartputc_sync+0x56>
    pop_off();
    800009c6:	2a6000ef          	jal	80000c6c <pop_off>
}
    800009ca:	b7ed                	j	800009b4 <uartputc_sync+0x46>

00000000800009cc <uartgetc>:

// read one input character from the UART.
// return -1 if none is waiting.
int
uartgetc(void)
{
    800009cc:	1141                	addi	sp,sp,-16
    800009ce:	e406                	sd	ra,8(sp)
    800009d0:	e022                	sd	s0,0(sp)
    800009d2:	0800                	addi	s0,sp,16
  if(ReadReg(LSR) & LSR_RX_READY){
    800009d4:	100007b7          	lui	a5,0x10000
    800009d8:	0057c783          	lbu	a5,5(a5) # 10000005 <_entry-0x6ffffffb>
    800009dc:	8b85                	andi	a5,a5,1
    800009de:	cb89                	beqz	a5,800009f0 <uartgetc+0x24>
    // input data is ready.
    return ReadReg(RHR);
    800009e0:	100007b7          	lui	a5,0x10000
    800009e4:	0007c503          	lbu	a0,0(a5) # 10000000 <_entry-0x70000000>
  } else {
    return -1;
  }
}
    800009e8:	60a2                	ld	ra,8(sp)
    800009ea:	6402                	ld	s0,0(sp)
    800009ec:	0141                	addi	sp,sp,16
    800009ee:	8082                	ret
    return -1;
    800009f0:	557d                	li	a0,-1
    800009f2:	bfdd                	j	800009e8 <uartgetc+0x1c>

00000000800009f4 <uartintr>:
// handle a uart interrupt, raised because input has
// arrived, or the uart is ready for more output, or
// both. called from devintr().
void
uartintr(void)
{
    800009f4:	1101                	addi	sp,sp,-32
    800009f6:	ec06                	sd	ra,24(sp)
    800009f8:	e822                	sd	s0,16(sp)
    800009fa:	e426                	sd	s1,8(sp)
    800009fc:	1000                	addi	s0,sp,32
  ReadReg(ISR); // acknowledge the interrupt
    800009fe:	100007b7          	lui	a5,0x10000
    80000a02:	0027c783          	lbu	a5,2(a5) # 10000002 <_entry-0x6ffffffe>

  acquire(&tx_lock);
    80000a06:	0000f517          	auipc	a0,0xf
    80000a0a:	f1a50513          	addi	a0,a0,-230 # 8000f920 <tx_lock>
    80000a0e:	21a000ef          	jal	80000c28 <acquire>
  if(ReadReg(LSR) & LSR_TX_IDLE){
    80000a12:	100007b7          	lui	a5,0x10000
    80000a16:	0057c783          	lbu	a5,5(a5) # 10000005 <_entry-0x6ffffffb>
    80000a1a:	0207f793          	andi	a5,a5,32
    80000a1e:	ef99                	bnez	a5,80000a3c <uartintr+0x48>
    // UART finished transmitting; wake up sending thread.
    tx_busy = 0;
    wakeup(&tx_chan);
  }
  release(&tx_lock);
    80000a20:	0000f517          	auipc	a0,0xf
    80000a24:	f0050513          	addi	a0,a0,-256 # 8000f920 <tx_lock>
    80000a28:	294000ef          	jal	80000cbc <release>

  // read and process incoming characters.
  while(1){
    int c = uartgetc();
    if(c == -1)
    80000a2c:	54fd                	li	s1,-1
    int c = uartgetc();
    80000a2e:	f9fff0ef          	jal	800009cc <uartgetc>
    if(c == -1)
    80000a32:	02950063          	beq	a0,s1,80000a52 <uartintr+0x5e>
      break;
    consoleintr(c);
    80000a36:	877ff0ef          	jal	800002ac <consoleintr>
  while(1){
    80000a3a:	bfd5                	j	80000a2e <uartintr+0x3a>
    tx_busy = 0;
    80000a3c:	00007797          	auipc	a5,0x7
    80000a40:	e007a023          	sw	zero,-512(a5) # 8000783c <tx_busy>
    wakeup(&tx_chan);
    80000a44:	00007517          	auipc	a0,0x7
    80000a48:	df450513          	addi	a0,a0,-524 # 80007838 <tx_chan>
    80000a4c:	52c010ef          	jal	80001f78 <wakeup>
    80000a50:	bfc1                	j	80000a20 <uartintr+0x2c>
  }
}
    80000a52:	60e2                	ld	ra,24(sp)
    80000a54:	6442                	ld	s0,16(sp)
    80000a56:	64a2                	ld	s1,8(sp)
    80000a58:	6105                	addi	sp,sp,32
    80000a5a:	8082                	ret

0000000080000a5c <kfree>:
// which normally should have been returned by a
// call to kalloc().  (The exception is when
// initializing the allocator; see kinit above.)
void
kfree(void *pa)
{
    80000a5c:	1101                	addi	sp,sp,-32
    80000a5e:	ec06                	sd	ra,24(sp)
    80000a60:	e822                	sd	s0,16(sp)
    80000a62:	e426                	sd	s1,8(sp)
    80000a64:	e04a                	sd	s2,0(sp)
    80000a66:	1000                	addi	s0,sp,32
  struct run *r;

  if(((uint64)pa % PGSIZE) != 0 || (char*)pa < end || (uint64)pa >= PHYSTOP)
    80000a68:	00020797          	auipc	a5,0x20
    80000a6c:	10078793          	addi	a5,a5,256 # 80020b68 <end>
    80000a70:	00f53733          	sltu	a4,a0,a5
    80000a74:	47c5                	li	a5,17
    80000a76:	07ee                	slli	a5,a5,0x1b
    80000a78:	17fd                	addi	a5,a5,-1
    80000a7a:	00a7b7b3          	sltu	a5,a5,a0
    80000a7e:	8fd9                	or	a5,a5,a4
    80000a80:	ef95                	bnez	a5,80000abc <kfree+0x60>
    80000a82:	84aa                	mv	s1,a0
    80000a84:	03451793          	slli	a5,a0,0x34
    80000a88:	eb95                	bnez	a5,80000abc <kfree+0x60>
    panic("kfree");

  // Fill with junk to catch dangling refs.
  memset(pa, 1, PGSIZE);
    80000a8a:	6605                	lui	a2,0x1
    80000a8c:	4585                	li	a1,1
    80000a8e:	26a000ef          	jal	80000cf8 <memset>

  r = (struct run*)pa;

  acquire(&kmem.lock);
    80000a92:	0000f917          	auipc	s2,0xf
    80000a96:	ea690913          	addi	s2,s2,-346 # 8000f938 <kmem>
    80000a9a:	854a                	mv	a0,s2
    80000a9c:	18c000ef          	jal	80000c28 <acquire>
  r->next = kmem.freelist;
    80000aa0:	01893783          	ld	a5,24(s2)
    80000aa4:	e09c                	sd	a5,0(s1)
  kmem.freelist = r;
    80000aa6:	00993c23          	sd	s1,24(s2)
  release(&kmem.lock);
    80000aaa:	854a                	mv	a0,s2
    80000aac:	210000ef          	jal	80000cbc <release>
}
    80000ab0:	60e2                	ld	ra,24(sp)
    80000ab2:	6442                	ld	s0,16(sp)
    80000ab4:	64a2                	ld	s1,8(sp)
    80000ab6:	6902                	ld	s2,0(sp)
    80000ab8:	6105                	addi	sp,sp,32
    80000aba:	8082                	ret
    panic("kfree");
    80000abc:	00006517          	auipc	a0,0x6
    80000ac0:	57c50513          	addi	a0,a0,1404 # 80007038 <etext+0x38>
    80000ac4:	d61ff0ef          	jal	80000824 <panic>

0000000080000ac8 <freerange>:
{
    80000ac8:	7179                	addi	sp,sp,-48
    80000aca:	f406                	sd	ra,40(sp)
    80000acc:	f022                	sd	s0,32(sp)
    80000ace:	ec26                	sd	s1,24(sp)
    80000ad0:	1800                	addi	s0,sp,48
  p = (char*)PGROUNDUP((uint64)pa_start);
    80000ad2:	6785                	lui	a5,0x1
    80000ad4:	fff78713          	addi	a4,a5,-1 # fff <_entry-0x7ffff001>
    80000ad8:	00e504b3          	add	s1,a0,a4
    80000adc:	777d                	lui	a4,0xfffff
    80000ade:	8cf9                	and	s1,s1,a4
  for(; p + PGSIZE <= (char*)pa_end; p += PGSIZE)
    80000ae0:	94be                	add	s1,s1,a5
    80000ae2:	0295e263          	bltu	a1,s1,80000b06 <freerange+0x3e>
    80000ae6:	e84a                	sd	s2,16(sp)
    80000ae8:	e44e                	sd	s3,8(sp)
    80000aea:	e052                	sd	s4,0(sp)
    80000aec:	892e                	mv	s2,a1
    kfree(p);
    80000aee:	8a3a                	mv	s4,a4
  for(; p + PGSIZE <= (char*)pa_end; p += PGSIZE)
    80000af0:	89be                	mv	s3,a5
    kfree(p);
    80000af2:	01448533          	add	a0,s1,s4
    80000af6:	f67ff0ef          	jal	80000a5c <kfree>
  for(; p + PGSIZE <= (char*)pa_end; p += PGSIZE)
    80000afa:	94ce                	add	s1,s1,s3
    80000afc:	fe997be3          	bgeu	s2,s1,80000af2 <freerange+0x2a>
    80000b00:	6942                	ld	s2,16(sp)
    80000b02:	69a2                	ld	s3,8(sp)
    80000b04:	6a02                	ld	s4,0(sp)
}
    80000b06:	70a2                	ld	ra,40(sp)
    80000b08:	7402                	ld	s0,32(sp)
    80000b0a:	64e2                	ld	s1,24(sp)
    80000b0c:	6145                	addi	sp,sp,48
    80000b0e:	8082                	ret

0000000080000b10 <kinit>:
{
    80000b10:	1141                	addi	sp,sp,-16
    80000b12:	e406                	sd	ra,8(sp)
    80000b14:	e022                	sd	s0,0(sp)
    80000b16:	0800                	addi	s0,sp,16
  initlock(&kmem.lock, "kmem");
    80000b18:	00006597          	auipc	a1,0x6
    80000b1c:	52858593          	addi	a1,a1,1320 # 80007040 <etext+0x40>
    80000b20:	0000f517          	auipc	a0,0xf
    80000b24:	e1850513          	addi	a0,a0,-488 # 8000f938 <kmem>
    80000b28:	076000ef          	jal	80000b9e <initlock>
  freerange(end, (void*)PHYSTOP);
    80000b2c:	45c5                	li	a1,17
    80000b2e:	05ee                	slli	a1,a1,0x1b
    80000b30:	00020517          	auipc	a0,0x20
    80000b34:	03850513          	addi	a0,a0,56 # 80020b68 <end>
    80000b38:	f91ff0ef          	jal	80000ac8 <freerange>
}
    80000b3c:	60a2                	ld	ra,8(sp)
    80000b3e:	6402                	ld	s0,0(sp)
    80000b40:	0141                	addi	sp,sp,16
    80000b42:	8082                	ret

0000000080000b44 <kalloc>:
// Allocate one 4096-byte page of physical memory.
// Returns a pointer that the kernel can use.
// Returns 0 if the memory cannot be allocated.
void *
kalloc(void)
{
    80000b44:	1101                	addi	sp,sp,-32
    80000b46:	ec06                	sd	ra,24(sp)
    80000b48:	e822                	sd	s0,16(sp)
    80000b4a:	e426                	sd	s1,8(sp)
    80000b4c:	1000                	addi	s0,sp,32
  struct run *r;

  acquire(&kmem.lock);
    80000b4e:	0000f517          	auipc	a0,0xf
    80000b52:	dea50513          	addi	a0,a0,-534 # 8000f938 <kmem>
    80000b56:	0d2000ef          	jal	80000c28 <acquire>
  r = kmem.freelist;
    80000b5a:	0000f497          	auipc	s1,0xf
    80000b5e:	df64b483          	ld	s1,-522(s1) # 8000f950 <kmem+0x18>
  if(r)
    80000b62:	c49d                	beqz	s1,80000b90 <kalloc+0x4c>
    kmem.freelist = r->next;
    80000b64:	609c                	ld	a5,0(s1)
    80000b66:	0000f717          	auipc	a4,0xf
    80000b6a:	def73523          	sd	a5,-534(a4) # 8000f950 <kmem+0x18>
  release(&kmem.lock);
    80000b6e:	0000f517          	auipc	a0,0xf
    80000b72:	dca50513          	addi	a0,a0,-566 # 8000f938 <kmem>
    80000b76:	146000ef          	jal	80000cbc <release>

  if(r)
    memset((char*)r, 5, PGSIZE); // fill with junk
    80000b7a:	6605                	lui	a2,0x1
    80000b7c:	4595                	li	a1,5
    80000b7e:	8526                	mv	a0,s1
    80000b80:	178000ef          	jal	80000cf8 <memset>
  return (void*)r;
}
    80000b84:	8526                	mv	a0,s1
    80000b86:	60e2                	ld	ra,24(sp)
    80000b88:	6442                	ld	s0,16(sp)
    80000b8a:	64a2                	ld	s1,8(sp)
    80000b8c:	6105                	addi	sp,sp,32
    80000b8e:	8082                	ret
  release(&kmem.lock);
    80000b90:	0000f517          	auipc	a0,0xf
    80000b94:	da850513          	addi	a0,a0,-600 # 8000f938 <kmem>
    80000b98:	124000ef          	jal	80000cbc <release>
  if(r)
    80000b9c:	b7e5                	j	80000b84 <kalloc+0x40>

0000000080000b9e <initlock>:
#include "proc.h"
#include "defs.h"

void
initlock(struct spinlock *lk, char *name)
{
    80000b9e:	1141                	addi	sp,sp,-16
    80000ba0:	e406                	sd	ra,8(sp)
    80000ba2:	e022                	sd	s0,0(sp)
    80000ba4:	0800                	addi	s0,sp,16
  lk->name = name;
    80000ba6:	e50c                	sd	a1,8(a0)
  lk->locked = 0;
    80000ba8:	00052023          	sw	zero,0(a0)
  lk->cpu = 0;
    80000bac:	00053823          	sd	zero,16(a0)
}
    80000bb0:	60a2                	ld	ra,8(sp)
    80000bb2:	6402                	ld	s0,0(sp)
    80000bb4:	0141                	addi	sp,sp,16
    80000bb6:	8082                	ret

0000000080000bb8 <holding>:
// Interrupts must be off.
int
holding(struct spinlock *lk)
{
  int r;
  r = (lk->locked && lk->cpu == mycpu());
    80000bb8:	411c                	lw	a5,0(a0)
    80000bba:	e399                	bnez	a5,80000bc0 <holding+0x8>
    80000bbc:	4501                	li	a0,0
  return r;
}
    80000bbe:	8082                	ret
{
    80000bc0:	1101                	addi	sp,sp,-32
    80000bc2:	ec06                	sd	ra,24(sp)
    80000bc4:	e822                	sd	s0,16(sp)
    80000bc6:	e426                	sd	s1,8(sp)
    80000bc8:	1000                	addi	s0,sp,32
  r = (lk->locked && lk->cpu == mycpu());
    80000bca:	691c                	ld	a5,16(a0)
    80000bcc:	84be                	mv	s1,a5
    80000bce:	541000ef          	jal	8000190e <mycpu>
    80000bd2:	40a48533          	sub	a0,s1,a0
    80000bd6:	00153513          	seqz	a0,a0
}
    80000bda:	60e2                	ld	ra,24(sp)
    80000bdc:	6442                	ld	s0,16(sp)
    80000bde:	64a2                	ld	s1,8(sp)
    80000be0:	6105                	addi	sp,sp,32
    80000be2:	8082                	ret

0000000080000be4 <push_off>:
// it takes two pop_off()s to undo two push_off()s.  Also, if interrupts
// are initially off, then push_off, pop_off leaves them off.

void
push_off(void)
{
    80000be4:	1101                	addi	sp,sp,-32
    80000be6:	ec06                	sd	ra,24(sp)
    80000be8:	e822                	sd	s0,16(sp)
    80000bea:	e426                	sd	s1,8(sp)
    80000bec:	1000                	addi	s0,sp,32
  asm volatile("csrr %0, sstatus" : "=r" (x) );
    80000bee:	100027f3          	csrr	a5,sstatus
    80000bf2:	84be                	mv	s1,a5
    80000bf4:	100027f3          	csrr	a5,sstatus
  w_sstatus(r_sstatus() & ~SSTATUS_SIE);
    80000bf8:	9bf5                	andi	a5,a5,-3
  asm volatile("csrw sstatus, %0" : : "r" (x));
    80000bfa:	10079073          	csrw	sstatus,a5

  // disable interrupts to prevent an involuntary context
  // switch while using mycpu().
  intr_off();

  if(mycpu()->noff == 0)
    80000bfe:	511000ef          	jal	8000190e <mycpu>
    80000c02:	5d3c                	lw	a5,120(a0)
    80000c04:	cb99                	beqz	a5,80000c1a <push_off+0x36>
    mycpu()->intena = old;
  mycpu()->noff += 1;
    80000c06:	509000ef          	jal	8000190e <mycpu>
    80000c0a:	5d3c                	lw	a5,120(a0)
    80000c0c:	2785                	addiw	a5,a5,1
    80000c0e:	dd3c                	sw	a5,120(a0)
}
    80000c10:	60e2                	ld	ra,24(sp)
    80000c12:	6442                	ld	s0,16(sp)
    80000c14:	64a2                	ld	s1,8(sp)
    80000c16:	6105                	addi	sp,sp,32
    80000c18:	8082                	ret
    mycpu()->intena = old;
    80000c1a:	4f5000ef          	jal	8000190e <mycpu>
  return (x & SSTATUS_SIE) != 0;
    80000c1e:	0014d793          	srli	a5,s1,0x1
    80000c22:	8b85                	andi	a5,a5,1
    80000c24:	dd7c                	sw	a5,124(a0)
    80000c26:	b7c5                	j	80000c06 <push_off+0x22>

0000000080000c28 <acquire>:
{
    80000c28:	1101                	addi	sp,sp,-32
    80000c2a:	ec06                	sd	ra,24(sp)
    80000c2c:	e822                	sd	s0,16(sp)
    80000c2e:	e426                	sd	s1,8(sp)
    80000c30:	1000                	addi	s0,sp,32
    80000c32:	84aa                	mv	s1,a0
  push_off(); // disable interrupts to avoid deadlock.
    80000c34:	fb1ff0ef          	jal	80000be4 <push_off>
  if(holding(lk))
    80000c38:	8526                	mv	a0,s1
    80000c3a:	f7fff0ef          	jal	80000bb8 <holding>
  while(__sync_lock_test_and_set(&lk->locked, 1) != 0)
    80000c3e:	4705                	li	a4,1
  if(holding(lk))
    80000c40:	e105                	bnez	a0,80000c60 <acquire+0x38>
  while(__sync_lock_test_and_set(&lk->locked, 1) != 0)
    80000c42:	87ba                	mv	a5,a4
    80000c44:	0cf4a7af          	amoswap.w.aq	a5,a5,(s1)
    80000c48:	2781                	sext.w	a5,a5
    80000c4a:	ffe5                	bnez	a5,80000c42 <acquire+0x1a>
  __sync_synchronize();
    80000c4c:	0330000f          	fence	rw,rw
  lk->cpu = mycpu();
    80000c50:	4bf000ef          	jal	8000190e <mycpu>
    80000c54:	e888                	sd	a0,16(s1)
}
    80000c56:	60e2                	ld	ra,24(sp)
    80000c58:	6442                	ld	s0,16(sp)
    80000c5a:	64a2                	ld	s1,8(sp)
    80000c5c:	6105                	addi	sp,sp,32
    80000c5e:	8082                	ret
    panic("acquire");
    80000c60:	00006517          	auipc	a0,0x6
    80000c64:	3e850513          	addi	a0,a0,1000 # 80007048 <etext+0x48>
    80000c68:	bbdff0ef          	jal	80000824 <panic>

0000000080000c6c <pop_off>:

void
pop_off(void)
{
    80000c6c:	1141                	addi	sp,sp,-16
    80000c6e:	e406                	sd	ra,8(sp)
    80000c70:	e022                	sd	s0,0(sp)
    80000c72:	0800                	addi	s0,sp,16
  struct cpu *c = mycpu();
    80000c74:	49b000ef          	jal	8000190e <mycpu>
  asm volatile("csrr %0, sstatus" : "=r" (x) );
    80000c78:	100027f3          	csrr	a5,sstatus
  return (x & SSTATUS_SIE) != 0;
    80000c7c:	8b89                	andi	a5,a5,2
  if(intr_get())
    80000c7e:	e39d                	bnez	a5,80000ca4 <pop_off+0x38>
    panic("pop_off - interruptible");
  if(c->noff < 1)
    80000c80:	5d3c                	lw	a5,120(a0)
    80000c82:	02f05763          	blez	a5,80000cb0 <pop_off+0x44>
    panic("pop_off");
  c->noff -= 1;
    80000c86:	37fd                	addiw	a5,a5,-1
    80000c88:	dd3c                	sw	a5,120(a0)
  if(c->noff == 0 && c->intena)
    80000c8a:	eb89                	bnez	a5,80000c9c <pop_off+0x30>
    80000c8c:	5d7c                	lw	a5,124(a0)
    80000c8e:	c799                	beqz	a5,80000c9c <pop_off+0x30>
  asm volatile("csrr %0, sstatus" : "=r" (x) );
    80000c90:	100027f3          	csrr	a5,sstatus
  w_sstatus(r_sstatus() | SSTATUS_SIE);
    80000c94:	0027e793          	ori	a5,a5,2
  asm volatile("csrw sstatus, %0" : : "r" (x));
    80000c98:	10079073          	csrw	sstatus,a5
    intr_on();
}
    80000c9c:	60a2                	ld	ra,8(sp)
    80000c9e:	6402                	ld	s0,0(sp)
    80000ca0:	0141                	addi	sp,sp,16
    80000ca2:	8082                	ret
    panic("pop_off - interruptible");
    80000ca4:	00006517          	auipc	a0,0x6
    80000ca8:	3ac50513          	addi	a0,a0,940 # 80007050 <etext+0x50>
    80000cac:	b79ff0ef          	jal	80000824 <panic>
    panic("pop_off");
    80000cb0:	00006517          	auipc	a0,0x6
    80000cb4:	3b850513          	addi	a0,a0,952 # 80007068 <etext+0x68>
    80000cb8:	b6dff0ef          	jal	80000824 <panic>

0000000080000cbc <release>:
{
    80000cbc:	1101                	addi	sp,sp,-32
    80000cbe:	ec06                	sd	ra,24(sp)
    80000cc0:	e822                	sd	s0,16(sp)
    80000cc2:	e426                	sd	s1,8(sp)
    80000cc4:	1000                	addi	s0,sp,32
    80000cc6:	84aa                	mv	s1,a0
  if(!holding(lk))
    80000cc8:	ef1ff0ef          	jal	80000bb8 <holding>
    80000ccc:	c105                	beqz	a0,80000cec <release+0x30>
  lk->cpu = 0;
    80000cce:	0004b823          	sd	zero,16(s1)
  __sync_synchronize();
    80000cd2:	0330000f          	fence	rw,rw
  __sync_lock_release(&lk->locked);
    80000cd6:	0310000f          	fence	rw,w
    80000cda:	0004a023          	sw	zero,0(s1)
  pop_off();
    80000cde:	f8fff0ef          	jal	80000c6c <pop_off>
}
    80000ce2:	60e2                	ld	ra,24(sp)
    80000ce4:	6442                	ld	s0,16(sp)
    80000ce6:	64a2                	ld	s1,8(sp)
    80000ce8:	6105                	addi	sp,sp,32
    80000cea:	8082                	ret
    panic("release");
    80000cec:	00006517          	auipc	a0,0x6
    80000cf0:	38450513          	addi	a0,a0,900 # 80007070 <etext+0x70>
    80000cf4:	b31ff0ef          	jal	80000824 <panic>

0000000080000cf8 <memset>:
#include "types.h"

void*
memset(void *dst, int c, uint n)
{
    80000cf8:	1141                	addi	sp,sp,-16
    80000cfa:	e406                	sd	ra,8(sp)
    80000cfc:	e022                	sd	s0,0(sp)
    80000cfe:	0800                	addi	s0,sp,16
  char *cdst = (char *) dst;
  int i;
  for(i = 0; i < n; i++){
    80000d00:	ca19                	beqz	a2,80000d16 <memset+0x1e>
    80000d02:	87aa                	mv	a5,a0
    80000d04:	1602                	slli	a2,a2,0x20
    80000d06:	9201                	srli	a2,a2,0x20
    80000d08:	00a60733          	add	a4,a2,a0
    cdst[i] = c;
    80000d0c:	00b78023          	sb	a1,0(a5)
  for(i = 0; i < n; i++){
    80000d10:	0785                	addi	a5,a5,1
    80000d12:	fee79de3          	bne	a5,a4,80000d0c <memset+0x14>
  }
  return dst;
}
    80000d16:	60a2                	ld	ra,8(sp)
    80000d18:	6402                	ld	s0,0(sp)
    80000d1a:	0141                	addi	sp,sp,16
    80000d1c:	8082                	ret

0000000080000d1e <memcmp>:

int
memcmp(const void *v1, const void *v2, uint n)
{
    80000d1e:	1141                	addi	sp,sp,-16
    80000d20:	e406                	sd	ra,8(sp)
    80000d22:	e022                	sd	s0,0(sp)
    80000d24:	0800                	addi	s0,sp,16
  const uchar *s1, *s2;

  s1 = v1;
  s2 = v2;
  while(n-- > 0){
    80000d26:	c61d                	beqz	a2,80000d54 <memcmp+0x36>
    80000d28:	1602                	slli	a2,a2,0x20
    80000d2a:	9201                	srli	a2,a2,0x20
    80000d2c:	00c506b3          	add	a3,a0,a2
    if(*s1 != *s2)
    80000d30:	00054783          	lbu	a5,0(a0)
    80000d34:	0005c703          	lbu	a4,0(a1)
    80000d38:	00e79863          	bne	a5,a4,80000d48 <memcmp+0x2a>
      return *s1 - *s2;
    s1++, s2++;
    80000d3c:	0505                	addi	a0,a0,1
    80000d3e:	0585                	addi	a1,a1,1
  while(n-- > 0){
    80000d40:	fed518e3          	bne	a0,a3,80000d30 <memcmp+0x12>
  }

  return 0;
    80000d44:	4501                	li	a0,0
    80000d46:	a019                	j	80000d4c <memcmp+0x2e>
      return *s1 - *s2;
    80000d48:	40e7853b          	subw	a0,a5,a4
}
    80000d4c:	60a2                	ld	ra,8(sp)
    80000d4e:	6402                	ld	s0,0(sp)
    80000d50:	0141                	addi	sp,sp,16
    80000d52:	8082                	ret
  return 0;
    80000d54:	4501                	li	a0,0
    80000d56:	bfdd                	j	80000d4c <memcmp+0x2e>

0000000080000d58 <memmove>:

void*
memmove(void *dst, const void *src, uint n)
{
    80000d58:	1141                	addi	sp,sp,-16
    80000d5a:	e406                	sd	ra,8(sp)
    80000d5c:	e022                	sd	s0,0(sp)
    80000d5e:	0800                	addi	s0,sp,16
  const char *s;
  char *d;

  if(n == 0)
    80000d60:	c205                	beqz	a2,80000d80 <memmove+0x28>
    return dst;
  
  s = src;
  d = dst;
  if(s < d && s + n > d){
    80000d62:	02a5e363          	bltu	a1,a0,80000d88 <memmove+0x30>
    s += n;
    d += n;
    while(n-- > 0)
      *--d = *--s;
  } else
    while(n-- > 0)
    80000d66:	1602                	slli	a2,a2,0x20
    80000d68:	9201                	srli	a2,a2,0x20
    80000d6a:	00c587b3          	add	a5,a1,a2
{
    80000d6e:	872a                	mv	a4,a0
      *d++ = *s++;
    80000d70:	0585                	addi	a1,a1,1
    80000d72:	0705                	addi	a4,a4,1
    80000d74:	fff5c683          	lbu	a3,-1(a1)
    80000d78:	fed70fa3          	sb	a3,-1(a4)
    while(n-- > 0)
    80000d7c:	feb79ae3          	bne	a5,a1,80000d70 <memmove+0x18>

  return dst;
}
    80000d80:	60a2                	ld	ra,8(sp)
    80000d82:	6402                	ld	s0,0(sp)
    80000d84:	0141                	addi	sp,sp,16
    80000d86:	8082                	ret
  if(s < d && s + n > d){
    80000d88:	02061693          	slli	a3,a2,0x20
    80000d8c:	9281                	srli	a3,a3,0x20
    80000d8e:	00d58733          	add	a4,a1,a3
    80000d92:	fce57ae3          	bgeu	a0,a4,80000d66 <memmove+0xe>
    d += n;
    80000d96:	96aa                	add	a3,a3,a0
    while(n-- > 0)
    80000d98:	fff6079b          	addiw	a5,a2,-1 # fff <_entry-0x7ffff001>
    80000d9c:	1782                	slli	a5,a5,0x20
    80000d9e:	9381                	srli	a5,a5,0x20
    80000da0:	fff7c793          	not	a5,a5
    80000da4:	97ba                	add	a5,a5,a4
      *--d = *--s;
    80000da6:	177d                	addi	a4,a4,-1
    80000da8:	16fd                	addi	a3,a3,-1
    80000daa:	00074603          	lbu	a2,0(a4)
    80000dae:	00c68023          	sb	a2,0(a3)
    while(n-- > 0)
    80000db2:	fee79ae3          	bne	a5,a4,80000da6 <memmove+0x4e>
    80000db6:	b7e9                	j	80000d80 <memmove+0x28>

0000000080000db8 <memcpy>:

// memcpy exists to placate GCC.  Use memmove.
void*
memcpy(void *dst, const void *src, uint n)
{
    80000db8:	1141                	addi	sp,sp,-16
    80000dba:	e406                	sd	ra,8(sp)
    80000dbc:	e022                	sd	s0,0(sp)
    80000dbe:	0800                	addi	s0,sp,16
  return memmove(dst, src, n);
    80000dc0:	f99ff0ef          	jal	80000d58 <memmove>
}
    80000dc4:	60a2                	ld	ra,8(sp)
    80000dc6:	6402                	ld	s0,0(sp)
    80000dc8:	0141                	addi	sp,sp,16
    80000dca:	8082                	ret

0000000080000dcc <strncmp>:

int
strncmp(const char *p, const char *q, uint n)
{
    80000dcc:	1141                	addi	sp,sp,-16
    80000dce:	e406                	sd	ra,8(sp)
    80000dd0:	e022                	sd	s0,0(sp)
    80000dd2:	0800                	addi	s0,sp,16
  while(n > 0 && *p && *p == *q)
    80000dd4:	ce11                	beqz	a2,80000df0 <strncmp+0x24>
    80000dd6:	00054783          	lbu	a5,0(a0)
    80000dda:	cf89                	beqz	a5,80000df4 <strncmp+0x28>
    80000ddc:	0005c703          	lbu	a4,0(a1)
    80000de0:	00f71a63          	bne	a4,a5,80000df4 <strncmp+0x28>
    n--, p++, q++;
    80000de4:	367d                	addiw	a2,a2,-1
    80000de6:	0505                	addi	a0,a0,1
    80000de8:	0585                	addi	a1,a1,1
  while(n > 0 && *p && *p == *q)
    80000dea:	f675                	bnez	a2,80000dd6 <strncmp+0xa>
  if(n == 0)
    return 0;
    80000dec:	4501                	li	a0,0
    80000dee:	a801                	j	80000dfe <strncmp+0x32>
    80000df0:	4501                	li	a0,0
    80000df2:	a031                	j	80000dfe <strncmp+0x32>
  return (uchar)*p - (uchar)*q;
    80000df4:	00054503          	lbu	a0,0(a0)
    80000df8:	0005c783          	lbu	a5,0(a1)
    80000dfc:	9d1d                	subw	a0,a0,a5
}
    80000dfe:	60a2                	ld	ra,8(sp)
    80000e00:	6402                	ld	s0,0(sp)
    80000e02:	0141                	addi	sp,sp,16
    80000e04:	8082                	ret

0000000080000e06 <strncpy>:

char*
strncpy(char *s, const char *t, int n)
{
    80000e06:	1141                	addi	sp,sp,-16
    80000e08:	e406                	sd	ra,8(sp)
    80000e0a:	e022                	sd	s0,0(sp)
    80000e0c:	0800                	addi	s0,sp,16
  char *os;

  os = s;
  while(n-- > 0 && (*s++ = *t++) != 0)
    80000e0e:	87aa                	mv	a5,a0
    80000e10:	a011                	j	80000e14 <strncpy+0xe>
    80000e12:	8636                	mv	a2,a3
    80000e14:	02c05863          	blez	a2,80000e44 <strncpy+0x3e>
    80000e18:	fff6069b          	addiw	a3,a2,-1
    80000e1c:	8836                	mv	a6,a3
    80000e1e:	0785                	addi	a5,a5,1
    80000e20:	0005c703          	lbu	a4,0(a1)
    80000e24:	fee78fa3          	sb	a4,-1(a5)
    80000e28:	0585                	addi	a1,a1,1
    80000e2a:	f765                	bnez	a4,80000e12 <strncpy+0xc>
    ;
  while(n-- > 0)
    80000e2c:	873e                	mv	a4,a5
    80000e2e:	01005b63          	blez	a6,80000e44 <strncpy+0x3e>
    80000e32:	9fb1                	addw	a5,a5,a2
    80000e34:	37fd                	addiw	a5,a5,-1
    *s++ = 0;
    80000e36:	0705                	addi	a4,a4,1
    80000e38:	fe070fa3          	sb	zero,-1(a4)
  while(n-- > 0)
    80000e3c:	40e786bb          	subw	a3,a5,a4
    80000e40:	fed04be3          	bgtz	a3,80000e36 <strncpy+0x30>
  return os;
}
    80000e44:	60a2                	ld	ra,8(sp)
    80000e46:	6402                	ld	s0,0(sp)
    80000e48:	0141                	addi	sp,sp,16
    80000e4a:	8082                	ret

0000000080000e4c <safestrcpy>:

// Like strncpy but guaranteed to NUL-terminate.
char*
safestrcpy(char *s, const char *t, int n)
{
    80000e4c:	1141                	addi	sp,sp,-16
    80000e4e:	e406                	sd	ra,8(sp)
    80000e50:	e022                	sd	s0,0(sp)
    80000e52:	0800                	addi	s0,sp,16
  char *os;

  os = s;
  if(n <= 0)
    80000e54:	02c05363          	blez	a2,80000e7a <safestrcpy+0x2e>
    80000e58:	fff6069b          	addiw	a3,a2,-1
    80000e5c:	1682                	slli	a3,a3,0x20
    80000e5e:	9281                	srli	a3,a3,0x20
    80000e60:	96ae                	add	a3,a3,a1
    80000e62:	87aa                	mv	a5,a0
    return os;
  while(--n > 0 && (*s++ = *t++) != 0)
    80000e64:	00d58963          	beq	a1,a3,80000e76 <safestrcpy+0x2a>
    80000e68:	0585                	addi	a1,a1,1
    80000e6a:	0785                	addi	a5,a5,1
    80000e6c:	fff5c703          	lbu	a4,-1(a1)
    80000e70:	fee78fa3          	sb	a4,-1(a5)
    80000e74:	fb65                	bnez	a4,80000e64 <safestrcpy+0x18>
    ;
  *s = 0;
    80000e76:	00078023          	sb	zero,0(a5)
  return os;
}
    80000e7a:	60a2                	ld	ra,8(sp)
    80000e7c:	6402                	ld	s0,0(sp)
    80000e7e:	0141                	addi	sp,sp,16
    80000e80:	8082                	ret

0000000080000e82 <strlen>:

int
strlen(const char *s)
{
    80000e82:	1141                	addi	sp,sp,-16
    80000e84:	e406                	sd	ra,8(sp)
    80000e86:	e022                	sd	s0,0(sp)
    80000e88:	0800                	addi	s0,sp,16
  int n;

  for(n = 0; s[n]; n++)
    80000e8a:	00054783          	lbu	a5,0(a0)
    80000e8e:	cf91                	beqz	a5,80000eaa <strlen+0x28>
    80000e90:	00150793          	addi	a5,a0,1
    80000e94:	86be                	mv	a3,a5
    80000e96:	0785                	addi	a5,a5,1
    80000e98:	fff7c703          	lbu	a4,-1(a5)
    80000e9c:	ff65                	bnez	a4,80000e94 <strlen+0x12>
    80000e9e:	40a6853b          	subw	a0,a3,a0
    ;
  return n;
}
    80000ea2:	60a2                	ld	ra,8(sp)
    80000ea4:	6402                	ld	s0,0(sp)
    80000ea6:	0141                	addi	sp,sp,16
    80000ea8:	8082                	ret
  for(n = 0; s[n]; n++)
    80000eaa:	4501                	li	a0,0
    80000eac:	bfdd                	j	80000ea2 <strlen+0x20>

0000000080000eae <main>:
volatile static int started = 0;

// start() jumps here in supervisor mode on all CPUs.
void
main()
{
    80000eae:	1141                	addi	sp,sp,-16
    80000eb0:	e406                	sd	ra,8(sp)
    80000eb2:	e022                	sd	s0,0(sp)
    80000eb4:	0800                	addi	s0,sp,16
  if(cpuid() == 0){
    80000eb6:	245000ef          	jal	800018fa <cpuid>
    virtio_disk_init(); // emulated hard disk
    userinit();      // first user process
    __sync_synchronize();
    started = 1;
  } else {
    while(started == 0)
    80000eba:	00007717          	auipc	a4,0x7
    80000ebe:	98670713          	addi	a4,a4,-1658 # 80007840 <started>
  if(cpuid() == 0){
    80000ec2:	c51d                	beqz	a0,80000ef0 <main+0x42>
    while(started == 0)
    80000ec4:	431c                	lw	a5,0(a4)
    80000ec6:	2781                	sext.w	a5,a5
    80000ec8:	dff5                	beqz	a5,80000ec4 <main+0x16>
      ;
    __sync_synchronize();
    80000eca:	0330000f          	fence	rw,rw
    printf("hart %d starting\n", cpuid());
    80000ece:	22d000ef          	jal	800018fa <cpuid>
    80000ed2:	85aa                	mv	a1,a0
    80000ed4:	00006517          	auipc	a0,0x6
    80000ed8:	1c450513          	addi	a0,a0,452 # 80007098 <etext+0x98>
    80000edc:	e1eff0ef          	jal	800004fa <printf>
    kvminithart();    // turn on paging
    80000ee0:	080000ef          	jal	80000f60 <kvminithart>
    trapinithart();   // install kernel trap vector
    80000ee4:	568010ef          	jal	8000244c <trapinithart>
    plicinithart();   // ask PLIC for device interrupts
    80000ee8:	570040ef          	jal	80005458 <plicinithart>
  }

  scheduler();        
    80000eec:	6a7000ef          	jal	80001d92 <scheduler>
    consoleinit();
    80000ef0:	d30ff0ef          	jal	80000420 <consoleinit>
    printfinit();
    80000ef4:	96dff0ef          	jal	80000860 <printfinit>
    printf("\n");
    80000ef8:	00006517          	auipc	a0,0x6
    80000efc:	18050513          	addi	a0,a0,384 # 80007078 <etext+0x78>
    80000f00:	dfaff0ef          	jal	800004fa <printf>
    printf("xv6 kernel is booting\n");
    80000f04:	00006517          	auipc	a0,0x6
    80000f08:	17c50513          	addi	a0,a0,380 # 80007080 <etext+0x80>
    80000f0c:	deeff0ef          	jal	800004fa <printf>
    printf("\n");
    80000f10:	00006517          	auipc	a0,0x6
    80000f14:	16850513          	addi	a0,a0,360 # 80007078 <etext+0x78>
    80000f18:	de2ff0ef          	jal	800004fa <printf>
    kinit();         // physical page allocator
    80000f1c:	bf5ff0ef          	jal	80000b10 <kinit>
    kvminit();       // create kernel page table
    80000f20:	2cc000ef          	jal	800011ec <kvminit>
    kvminithart();   // turn on paging
    80000f24:	03c000ef          	jal	80000f60 <kvminithart>
    procinit();      // process table
    80000f28:	11d000ef          	jal	80001844 <procinit>
    trapinit();      // trap vectors
    80000f2c:	4fc010ef          	jal	80002428 <trapinit>
    trapinithart();  // install kernel trap vector
    80000f30:	51c010ef          	jal	8000244c <trapinithart>
    plicinit();      // set up interrupt controller
    80000f34:	50a040ef          	jal	8000543e <plicinit>
    plicinithart();  // ask PLIC for device interrupts
    80000f38:	520040ef          	jal	80005458 <plicinithart>
    binit();         // buffer cache
    80000f3c:	39d010ef          	jal	80002ad8 <binit>
    iinit();         // inode table
    80000f40:	0ee020ef          	jal	8000302e <iinit>
    fileinit();      // file table
    80000f44:	01a030ef          	jal	80003f5e <fileinit>
    virtio_disk_init(); // emulated hard disk
    80000f48:	600040ef          	jal	80005548 <virtio_disk_init>
    userinit();      // first user process
    80000f4c:	4ad000ef          	jal	80001bf8 <userinit>
    __sync_synchronize();
    80000f50:	0330000f          	fence	rw,rw
    started = 1;
    80000f54:	4785                	li	a5,1
    80000f56:	00007717          	auipc	a4,0x7
    80000f5a:	8ef72523          	sw	a5,-1814(a4) # 80007840 <started>
    80000f5e:	b779                	j	80000eec <main+0x3e>

0000000080000f60 <kvminithart>:

// Switch the current CPU's h/w page table register to
// the kernel's page table, and enable paging.
void
kvminithart()
{
    80000f60:	1141                	addi	sp,sp,-16
    80000f62:	e406                	sd	ra,8(sp)
    80000f64:	e022                	sd	s0,0(sp)
    80000f66:	0800                	addi	s0,sp,16
// flush the TLB.
static inline void
sfence_vma()
{
  // the zero, zero means flush all TLB entries.
  asm volatile("sfence.vma zero, zero");
    80000f68:	12000073          	sfence.vma
  // wait for any previous writes to the page table memory to finish.
  sfence_vma();

  w_satp(MAKE_SATP(kernel_pagetable));
    80000f6c:	00007797          	auipc	a5,0x7
    80000f70:	8dc7b783          	ld	a5,-1828(a5) # 80007848 <kernel_pagetable>
    80000f74:	83b1                	srli	a5,a5,0xc
    80000f76:	577d                	li	a4,-1
    80000f78:	177e                	slli	a4,a4,0x3f
    80000f7a:	8fd9                	or	a5,a5,a4
  asm volatile("csrw satp, %0" : : "r" (x));
    80000f7c:	18079073          	csrw	satp,a5
  asm volatile("sfence.vma zero, zero");
    80000f80:	12000073          	sfence.vma

  // flush stale entries from the TLB.
  sfence_vma();
}
    80000f84:	60a2                	ld	ra,8(sp)
    80000f86:	6402                	ld	s0,0(sp)
    80000f88:	0141                	addi	sp,sp,16
    80000f8a:	8082                	ret

0000000080000f8c <walk>:
//   21..29 -- 9 bits of level-1 index.
//   12..20 -- 9 bits of level-0 index.
//    0..11 -- 12 bits of byte offset within the page.
pte_t *
walk(pagetable_t pagetable, uint64 va, int alloc)
{
    80000f8c:	7139                	addi	sp,sp,-64
    80000f8e:	fc06                	sd	ra,56(sp)
    80000f90:	f822                	sd	s0,48(sp)
    80000f92:	f426                	sd	s1,40(sp)
    80000f94:	f04a                	sd	s2,32(sp)
    80000f96:	ec4e                	sd	s3,24(sp)
    80000f98:	e852                	sd	s4,16(sp)
    80000f9a:	e456                	sd	s5,8(sp)
    80000f9c:	e05a                	sd	s6,0(sp)
    80000f9e:	0080                	addi	s0,sp,64
    80000fa0:	84aa                	mv	s1,a0
    80000fa2:	89ae                	mv	s3,a1
    80000fa4:	8b32                	mv	s6,a2
  if(va >= MAXVA)
    80000fa6:	57fd                	li	a5,-1
    80000fa8:	83e9                	srli	a5,a5,0x1a
    80000faa:	4a79                	li	s4,30
    panic("walk");

  for(int level = 2; level > 0; level--) {
    80000fac:	4ab1                	li	s5,12
  if(va >= MAXVA)
    80000fae:	04b7e263          	bltu	a5,a1,80000ff2 <walk+0x66>
    pte_t *pte = &pagetable[PX(level, va)];
    80000fb2:	0149d933          	srl	s2,s3,s4
    80000fb6:	1ff97913          	andi	s2,s2,511
    80000fba:	090e                	slli	s2,s2,0x3
    80000fbc:	9926                	add	s2,s2,s1
    if(*pte & PTE_V) {
    80000fbe:	00093483          	ld	s1,0(s2)
    80000fc2:	0014f793          	andi	a5,s1,1
    80000fc6:	cf85                	beqz	a5,80000ffe <walk+0x72>
      pagetable = (pagetable_t)PTE2PA(*pte);
    80000fc8:	80a9                	srli	s1,s1,0xa
    80000fca:	04b2                	slli	s1,s1,0xc
  for(int level = 2; level > 0; level--) {
    80000fcc:	3a5d                	addiw	s4,s4,-9
    80000fce:	ff5a12e3          	bne	s4,s5,80000fb2 <walk+0x26>
        return 0;
      memset(pagetable, 0, PGSIZE);
      *pte = PA2PTE(pagetable) | PTE_V;
    }
  }
  return &pagetable[PX(0, va)];
    80000fd2:	00c9d513          	srli	a0,s3,0xc
    80000fd6:	1ff57513          	andi	a0,a0,511
    80000fda:	050e                	slli	a0,a0,0x3
    80000fdc:	9526                	add	a0,a0,s1
}
    80000fde:	70e2                	ld	ra,56(sp)
    80000fe0:	7442                	ld	s0,48(sp)
    80000fe2:	74a2                	ld	s1,40(sp)
    80000fe4:	7902                	ld	s2,32(sp)
    80000fe6:	69e2                	ld	s3,24(sp)
    80000fe8:	6a42                	ld	s4,16(sp)
    80000fea:	6aa2                	ld	s5,8(sp)
    80000fec:	6b02                	ld	s6,0(sp)
    80000fee:	6121                	addi	sp,sp,64
    80000ff0:	8082                	ret
    panic("walk");
    80000ff2:	00006517          	auipc	a0,0x6
    80000ff6:	0be50513          	addi	a0,a0,190 # 800070b0 <etext+0xb0>
    80000ffa:	82bff0ef          	jal	80000824 <panic>
      if(!alloc || (pagetable = (pde_t*)kalloc()) == 0)
    80000ffe:	020b0263          	beqz	s6,80001022 <walk+0x96>
    80001002:	b43ff0ef          	jal	80000b44 <kalloc>
    80001006:	84aa                	mv	s1,a0
    80001008:	d979                	beqz	a0,80000fde <walk+0x52>
      memset(pagetable, 0, PGSIZE);
    8000100a:	6605                	lui	a2,0x1
    8000100c:	4581                	li	a1,0
    8000100e:	cebff0ef          	jal	80000cf8 <memset>
      *pte = PA2PTE(pagetable) | PTE_V;
    80001012:	00c4d793          	srli	a5,s1,0xc
    80001016:	07aa                	slli	a5,a5,0xa
    80001018:	0017e793          	ori	a5,a5,1
    8000101c:	00f93023          	sd	a5,0(s2)
    80001020:	b775                	j	80000fcc <walk+0x40>
        return 0;
    80001022:	4501                	li	a0,0
    80001024:	bf6d                	j	80000fde <walk+0x52>

0000000080001026 <walkaddr>:
walkaddr(pagetable_t pagetable, uint64 va)
{
  pte_t *pte;
  uint64 pa;

  if(va >= MAXVA)
    80001026:	57fd                	li	a5,-1
    80001028:	83e9                	srli	a5,a5,0x1a
    8000102a:	00b7f463          	bgeu	a5,a1,80001032 <walkaddr+0xc>
    return 0;
    8000102e:	4501                	li	a0,0
    return 0;
  if((*pte & PTE_U) == 0)
    return 0;
  pa = PTE2PA(*pte);
  return pa;
}
    80001030:	8082                	ret
{
    80001032:	1141                	addi	sp,sp,-16
    80001034:	e406                	sd	ra,8(sp)
    80001036:	e022                	sd	s0,0(sp)
    80001038:	0800                	addi	s0,sp,16
  pte = walk(pagetable, va, 0);
    8000103a:	4601                	li	a2,0
    8000103c:	f51ff0ef          	jal	80000f8c <walk>
  if(pte == 0)
    80001040:	c901                	beqz	a0,80001050 <walkaddr+0x2a>
  if((*pte & PTE_V) == 0)
    80001042:	611c                	ld	a5,0(a0)
  if((*pte & PTE_U) == 0)
    80001044:	0117f693          	andi	a3,a5,17
    80001048:	4745                	li	a4,17
    return 0;
    8000104a:	4501                	li	a0,0
  if((*pte & PTE_U) == 0)
    8000104c:	00e68663          	beq	a3,a4,80001058 <walkaddr+0x32>
}
    80001050:	60a2                	ld	ra,8(sp)
    80001052:	6402                	ld	s0,0(sp)
    80001054:	0141                	addi	sp,sp,16
    80001056:	8082                	ret
  pa = PTE2PA(*pte);
    80001058:	83a9                	srli	a5,a5,0xa
    8000105a:	00c79513          	slli	a0,a5,0xc
  return pa;
    8000105e:	bfcd                	j	80001050 <walkaddr+0x2a>

0000000080001060 <mappages>:
// va and size MUST be page-aligned.
// Returns 0 on success, -1 if walk() couldn't
// allocate a needed page-table page.
int
mappages(pagetable_t pagetable, uint64 va, uint64 size, uint64 pa, int perm)
{
    80001060:	715d                	addi	sp,sp,-80
    80001062:	e486                	sd	ra,72(sp)
    80001064:	e0a2                	sd	s0,64(sp)
    80001066:	fc26                	sd	s1,56(sp)
    80001068:	f84a                	sd	s2,48(sp)
    8000106a:	f44e                	sd	s3,40(sp)
    8000106c:	f052                	sd	s4,32(sp)
    8000106e:	ec56                	sd	s5,24(sp)
    80001070:	e85a                	sd	s6,16(sp)
    80001072:	e45e                	sd	s7,8(sp)
    80001074:	0880                	addi	s0,sp,80
  uint64 a, last;
  pte_t *pte;

  if((va % PGSIZE) != 0)
    80001076:	03459793          	slli	a5,a1,0x34
    8000107a:	eba1                	bnez	a5,800010ca <mappages+0x6a>
    8000107c:	8a2a                	mv	s4,a0
    8000107e:	8aba                	mv	s5,a4
    panic("mappages: va not aligned");

  if((size % PGSIZE) != 0)
    80001080:	03461793          	slli	a5,a2,0x34
    80001084:	eba9                	bnez	a5,800010d6 <mappages+0x76>
    panic("mappages: size not aligned");

  if(size == 0)
    80001086:	ce31                	beqz	a2,800010e2 <mappages+0x82>
    panic("mappages: size");
  
  a = va;
  last = va + size - PGSIZE;
    80001088:	80060613          	addi	a2,a2,-2048 # 800 <_entry-0x7ffff800>
    8000108c:	80060613          	addi	a2,a2,-2048
    80001090:	00b60933          	add	s2,a2,a1
  a = va;
    80001094:	84ae                	mv	s1,a1
  for(;;){
    if((pte = walk(pagetable, a, 1)) == 0)
    80001096:	4b05                	li	s6,1
    80001098:	40b689b3          	sub	s3,a3,a1
    if(*pte & PTE_V)
      panic("mappages: remap");
    *pte = PA2PTE(pa) | perm | PTE_V;
    if(a == last)
      break;
    a += PGSIZE;
    8000109c:	6b85                	lui	s7,0x1
    if((pte = walk(pagetable, a, 1)) == 0)
    8000109e:	865a                	mv	a2,s6
    800010a0:	85a6                	mv	a1,s1
    800010a2:	8552                	mv	a0,s4
    800010a4:	ee9ff0ef          	jal	80000f8c <walk>
    800010a8:	c929                	beqz	a0,800010fa <mappages+0x9a>
    if(*pte & PTE_V)
    800010aa:	611c                	ld	a5,0(a0)
    800010ac:	8b85                	andi	a5,a5,1
    800010ae:	e3a1                	bnez	a5,800010ee <mappages+0x8e>
    *pte = PA2PTE(pa) | perm | PTE_V;
    800010b0:	013487b3          	add	a5,s1,s3
    800010b4:	83b1                	srli	a5,a5,0xc
    800010b6:	07aa                	slli	a5,a5,0xa
    800010b8:	0157e7b3          	or	a5,a5,s5
    800010bc:	0017e793          	ori	a5,a5,1
    800010c0:	e11c                	sd	a5,0(a0)
    if(a == last)
    800010c2:	05248863          	beq	s1,s2,80001112 <mappages+0xb2>
    a += PGSIZE;
    800010c6:	94de                	add	s1,s1,s7
    if((pte = walk(pagetable, a, 1)) == 0)
    800010c8:	bfd9                	j	8000109e <mappages+0x3e>
    panic("mappages: va not aligned");
    800010ca:	00006517          	auipc	a0,0x6
    800010ce:	fee50513          	addi	a0,a0,-18 # 800070b8 <etext+0xb8>
    800010d2:	f52ff0ef          	jal	80000824 <panic>
    panic("mappages: size not aligned");
    800010d6:	00006517          	auipc	a0,0x6
    800010da:	00250513          	addi	a0,a0,2 # 800070d8 <etext+0xd8>
    800010de:	f46ff0ef          	jal	80000824 <panic>
    panic("mappages: size");
    800010e2:	00006517          	auipc	a0,0x6
    800010e6:	01650513          	addi	a0,a0,22 # 800070f8 <etext+0xf8>
    800010ea:	f3aff0ef          	jal	80000824 <panic>
      panic("mappages: remap");
    800010ee:	00006517          	auipc	a0,0x6
    800010f2:	01a50513          	addi	a0,a0,26 # 80007108 <etext+0x108>
    800010f6:	f2eff0ef          	jal	80000824 <panic>
      return -1;
    800010fa:	557d                	li	a0,-1
    pa += PGSIZE;
  }
  return 0;
}
    800010fc:	60a6                	ld	ra,72(sp)
    800010fe:	6406                	ld	s0,64(sp)
    80001100:	74e2                	ld	s1,56(sp)
    80001102:	7942                	ld	s2,48(sp)
    80001104:	79a2                	ld	s3,40(sp)
    80001106:	7a02                	ld	s4,32(sp)
    80001108:	6ae2                	ld	s5,24(sp)
    8000110a:	6b42                	ld	s6,16(sp)
    8000110c:	6ba2                	ld	s7,8(sp)
    8000110e:	6161                	addi	sp,sp,80
    80001110:	8082                	ret
  return 0;
    80001112:	4501                	li	a0,0
    80001114:	b7e5                	j	800010fc <mappages+0x9c>

0000000080001116 <kvmmap>:
{
    80001116:	1141                	addi	sp,sp,-16
    80001118:	e406                	sd	ra,8(sp)
    8000111a:	e022                	sd	s0,0(sp)
    8000111c:	0800                	addi	s0,sp,16
    8000111e:	87b6                	mv	a5,a3
  if(mappages(kpgtbl, va, sz, pa, perm) != 0)
    80001120:	86b2                	mv	a3,a2
    80001122:	863e                	mv	a2,a5
    80001124:	f3dff0ef          	jal	80001060 <mappages>
    80001128:	e509                	bnez	a0,80001132 <kvmmap+0x1c>
}
    8000112a:	60a2                	ld	ra,8(sp)
    8000112c:	6402                	ld	s0,0(sp)
    8000112e:	0141                	addi	sp,sp,16
    80001130:	8082                	ret
    panic("kvmmap");
    80001132:	00006517          	auipc	a0,0x6
    80001136:	fe650513          	addi	a0,a0,-26 # 80007118 <etext+0x118>
    8000113a:	eeaff0ef          	jal	80000824 <panic>

000000008000113e <kvmmake>:
{
    8000113e:	1101                	addi	sp,sp,-32
    80001140:	ec06                	sd	ra,24(sp)
    80001142:	e822                	sd	s0,16(sp)
    80001144:	e426                	sd	s1,8(sp)
    80001146:	1000                	addi	s0,sp,32
  kpgtbl = (pagetable_t) kalloc();
    80001148:	9fdff0ef          	jal	80000b44 <kalloc>
    8000114c:	84aa                	mv	s1,a0
  memset(kpgtbl, 0, PGSIZE);
    8000114e:	6605                	lui	a2,0x1
    80001150:	4581                	li	a1,0
    80001152:	ba7ff0ef          	jal	80000cf8 <memset>
  kvmmap(kpgtbl, UART0, UART0, PGSIZE, PTE_R | PTE_W);
    80001156:	4719                	li	a4,6
    80001158:	6685                	lui	a3,0x1
    8000115a:	10000637          	lui	a2,0x10000
    8000115e:	85b2                	mv	a1,a2
    80001160:	8526                	mv	a0,s1
    80001162:	fb5ff0ef          	jal	80001116 <kvmmap>
  kvmmap(kpgtbl, VIRTIO0, VIRTIO0, PGSIZE, PTE_R | PTE_W);
    80001166:	4719                	li	a4,6
    80001168:	6685                	lui	a3,0x1
    8000116a:	10001637          	lui	a2,0x10001
    8000116e:	85b2                	mv	a1,a2
    80001170:	8526                	mv	a0,s1
    80001172:	fa5ff0ef          	jal	80001116 <kvmmap>
  kvmmap(kpgtbl, PLIC, PLIC, 0x4000000, PTE_R | PTE_W);
    80001176:	4719                	li	a4,6
    80001178:	040006b7          	lui	a3,0x4000
    8000117c:	0c000637          	lui	a2,0xc000
    80001180:	85b2                	mv	a1,a2
    80001182:	8526                	mv	a0,s1
    80001184:	f93ff0ef          	jal	80001116 <kvmmap>
  kvmmap(kpgtbl, KERNBASE, KERNBASE, (uint64)etext-KERNBASE, PTE_R | PTE_X);
    80001188:	4729                	li	a4,10
    8000118a:	80006697          	auipc	a3,0x80006
    8000118e:	e7668693          	addi	a3,a3,-394 # 7000 <_entry-0x7fff9000>
    80001192:	4605                	li	a2,1
    80001194:	067e                	slli	a2,a2,0x1f
    80001196:	85b2                	mv	a1,a2
    80001198:	8526                	mv	a0,s1
    8000119a:	f7dff0ef          	jal	80001116 <kvmmap>
  kvmmap(kpgtbl, (uint64)etext, (uint64)etext, PHYSTOP-(uint64)etext, PTE_R | PTE_W);
    8000119e:	4719                	li	a4,6
    800011a0:	00006697          	auipc	a3,0x6
    800011a4:	e6068693          	addi	a3,a3,-416 # 80007000 <etext>
    800011a8:	47c5                	li	a5,17
    800011aa:	07ee                	slli	a5,a5,0x1b
    800011ac:	40d786b3          	sub	a3,a5,a3
    800011b0:	00006617          	auipc	a2,0x6
    800011b4:	e5060613          	addi	a2,a2,-432 # 80007000 <etext>
    800011b8:	85b2                	mv	a1,a2
    800011ba:	8526                	mv	a0,s1
    800011bc:	f5bff0ef          	jal	80001116 <kvmmap>
  kvmmap(kpgtbl, TRAMPOLINE, (uint64)trampoline, PGSIZE, PTE_R | PTE_X);
    800011c0:	4729                	li	a4,10
    800011c2:	6685                	lui	a3,0x1
    800011c4:	00005617          	auipc	a2,0x5
    800011c8:	e3c60613          	addi	a2,a2,-452 # 80006000 <_trampoline>
    800011cc:	040005b7          	lui	a1,0x4000
    800011d0:	15fd                	addi	a1,a1,-1 # 3ffffff <_entry-0x7c000001>
    800011d2:	05b2                	slli	a1,a1,0xc
    800011d4:	8526                	mv	a0,s1
    800011d6:	f41ff0ef          	jal	80001116 <kvmmap>
  proc_mapstacks(kpgtbl);
    800011da:	8526                	mv	a0,s1
    800011dc:	5c4000ef          	jal	800017a0 <proc_mapstacks>
}
    800011e0:	8526                	mv	a0,s1
    800011e2:	60e2                	ld	ra,24(sp)
    800011e4:	6442                	ld	s0,16(sp)
    800011e6:	64a2                	ld	s1,8(sp)
    800011e8:	6105                	addi	sp,sp,32
    800011ea:	8082                	ret

00000000800011ec <kvminit>:
{
    800011ec:	1141                	addi	sp,sp,-16
    800011ee:	e406                	sd	ra,8(sp)
    800011f0:	e022                	sd	s0,0(sp)
    800011f2:	0800                	addi	s0,sp,16
  kernel_pagetable = kvmmake();
    800011f4:	f4bff0ef          	jal	8000113e <kvmmake>
    800011f8:	00006797          	auipc	a5,0x6
    800011fc:	64a7b823          	sd	a0,1616(a5) # 80007848 <kernel_pagetable>
}
    80001200:	60a2                	ld	ra,8(sp)
    80001202:	6402                	ld	s0,0(sp)
    80001204:	0141                	addi	sp,sp,16
    80001206:	8082                	ret

0000000080001208 <uvmcreate>:

// create an empty user page table.
// returns 0 if out of memory.
pagetable_t
uvmcreate()
{
    80001208:	1101                	addi	sp,sp,-32
    8000120a:	ec06                	sd	ra,24(sp)
    8000120c:	e822                	sd	s0,16(sp)
    8000120e:	e426                	sd	s1,8(sp)
    80001210:	1000                	addi	s0,sp,32
  pagetable_t pagetable;
  pagetable = (pagetable_t) kalloc();
    80001212:	933ff0ef          	jal	80000b44 <kalloc>
    80001216:	84aa                	mv	s1,a0
  if(pagetable == 0)
    80001218:	c509                	beqz	a0,80001222 <uvmcreate+0x1a>
    return 0;
  memset(pagetable, 0, PGSIZE);
    8000121a:	6605                	lui	a2,0x1
    8000121c:	4581                	li	a1,0
    8000121e:	adbff0ef          	jal	80000cf8 <memset>
  return pagetable;
}
    80001222:	8526                	mv	a0,s1
    80001224:	60e2                	ld	ra,24(sp)
    80001226:	6442                	ld	s0,16(sp)
    80001228:	64a2                	ld	s1,8(sp)
    8000122a:	6105                	addi	sp,sp,32
    8000122c:	8082                	ret

000000008000122e <uvmunmap>:
// Remove npages of mappings starting from va. va must be
// page-aligned. It's OK if the mappings don't exist.
// Optionally free the physical memory.
void
uvmunmap(pagetable_t pagetable, uint64 va, uint64 npages, int do_free)
{
    8000122e:	7139                	addi	sp,sp,-64
    80001230:	fc06                	sd	ra,56(sp)
    80001232:	f822                	sd	s0,48(sp)
    80001234:	0080                	addi	s0,sp,64
  uint64 a;
  pte_t *pte;

  if((va % PGSIZE) != 0)
    80001236:	03459793          	slli	a5,a1,0x34
    8000123a:	e38d                	bnez	a5,8000125c <uvmunmap+0x2e>
    8000123c:	f04a                	sd	s2,32(sp)
    8000123e:	ec4e                	sd	s3,24(sp)
    80001240:	e852                	sd	s4,16(sp)
    80001242:	e456                	sd	s5,8(sp)
    80001244:	e05a                	sd	s6,0(sp)
    80001246:	8a2a                	mv	s4,a0
    80001248:	892e                	mv	s2,a1
    8000124a:	8ab6                	mv	s5,a3
    panic("uvmunmap: not aligned");

  for(a = va; a < va + npages*PGSIZE; a += PGSIZE){
    8000124c:	0632                	slli	a2,a2,0xc
    8000124e:	00b609b3          	add	s3,a2,a1
    80001252:	6b05                	lui	s6,0x1
    80001254:	0535f963          	bgeu	a1,s3,800012a6 <uvmunmap+0x78>
    80001258:	f426                	sd	s1,40(sp)
    8000125a:	a015                	j	8000127e <uvmunmap+0x50>
    8000125c:	f426                	sd	s1,40(sp)
    8000125e:	f04a                	sd	s2,32(sp)
    80001260:	ec4e                	sd	s3,24(sp)
    80001262:	e852                	sd	s4,16(sp)
    80001264:	e456                	sd	s5,8(sp)
    80001266:	e05a                	sd	s6,0(sp)
    panic("uvmunmap: not aligned");
    80001268:	00006517          	auipc	a0,0x6
    8000126c:	eb850513          	addi	a0,a0,-328 # 80007120 <etext+0x120>
    80001270:	db4ff0ef          	jal	80000824 <panic>
      continue;
    if(do_free){
      uint64 pa = PTE2PA(*pte);
      kfree((void*)pa);
    }
    *pte = 0;
    80001274:	0004b023          	sd	zero,0(s1)
  for(a = va; a < va + npages*PGSIZE; a += PGSIZE){
    80001278:	995a                	add	s2,s2,s6
    8000127a:	03397563          	bgeu	s2,s3,800012a4 <uvmunmap+0x76>
    if((pte = walk(pagetable, a, 0)) == 0) // leaf page table entry allocated?
    8000127e:	4601                	li	a2,0
    80001280:	85ca                	mv	a1,s2
    80001282:	8552                	mv	a0,s4
    80001284:	d09ff0ef          	jal	80000f8c <walk>
    80001288:	84aa                	mv	s1,a0
    8000128a:	d57d                	beqz	a0,80001278 <uvmunmap+0x4a>
    if((*pte & PTE_V) == 0)  // has physical page been allocated?
    8000128c:	611c                	ld	a5,0(a0)
    8000128e:	0017f713          	andi	a4,a5,1
    80001292:	d37d                	beqz	a4,80001278 <uvmunmap+0x4a>
    if(do_free){
    80001294:	fe0a80e3          	beqz	s5,80001274 <uvmunmap+0x46>
      uint64 pa = PTE2PA(*pte);
    80001298:	83a9                	srli	a5,a5,0xa
      kfree((void*)pa);
    8000129a:	00c79513          	slli	a0,a5,0xc
    8000129e:	fbeff0ef          	jal	80000a5c <kfree>
    800012a2:	bfc9                	j	80001274 <uvmunmap+0x46>
    800012a4:	74a2                	ld	s1,40(sp)
    800012a6:	7902                	ld	s2,32(sp)
    800012a8:	69e2                	ld	s3,24(sp)
    800012aa:	6a42                	ld	s4,16(sp)
    800012ac:	6aa2                	ld	s5,8(sp)
    800012ae:	6b02                	ld	s6,0(sp)
  }
}
    800012b0:	70e2                	ld	ra,56(sp)
    800012b2:	7442                	ld	s0,48(sp)
    800012b4:	6121                	addi	sp,sp,64
    800012b6:	8082                	ret

00000000800012b8 <uvmdealloc>:
// newsz.  oldsz and newsz need not be page-aligned, nor does newsz
// need to be less than oldsz.  oldsz can be larger than the actual
// process size.  Returns the new process size.
uint64
uvmdealloc(pagetable_t pagetable, uint64 oldsz, uint64 newsz)
{
    800012b8:	1101                	addi	sp,sp,-32
    800012ba:	ec06                	sd	ra,24(sp)
    800012bc:	e822                	sd	s0,16(sp)
    800012be:	e426                	sd	s1,8(sp)
    800012c0:	1000                	addi	s0,sp,32
  if(newsz >= oldsz)
    return oldsz;
    800012c2:	84ae                	mv	s1,a1
  if(newsz >= oldsz)
    800012c4:	00b67d63          	bgeu	a2,a1,800012de <uvmdealloc+0x26>
    800012c8:	84b2                	mv	s1,a2

  if(PGROUNDUP(newsz) < PGROUNDUP(oldsz)){
    800012ca:	6785                	lui	a5,0x1
    800012cc:	17fd                	addi	a5,a5,-1 # fff <_entry-0x7ffff001>
    800012ce:	00f60733          	add	a4,a2,a5
    800012d2:	76fd                	lui	a3,0xfffff
    800012d4:	8f75                	and	a4,a4,a3
    800012d6:	97ae                	add	a5,a5,a1
    800012d8:	8ff5                	and	a5,a5,a3
    800012da:	00f76863          	bltu	a4,a5,800012ea <uvmdealloc+0x32>
    int npages = (PGROUNDUP(oldsz) - PGROUNDUP(newsz)) / PGSIZE;
    uvmunmap(pagetable, PGROUNDUP(newsz), npages, 1);
  }

  return newsz;
}
    800012de:	8526                	mv	a0,s1
    800012e0:	60e2                	ld	ra,24(sp)
    800012e2:	6442                	ld	s0,16(sp)
    800012e4:	64a2                	ld	s1,8(sp)
    800012e6:	6105                	addi	sp,sp,32
    800012e8:	8082                	ret
    int npages = (PGROUNDUP(oldsz) - PGROUNDUP(newsz)) / PGSIZE;
    800012ea:	8f99                	sub	a5,a5,a4
    800012ec:	83b1                	srli	a5,a5,0xc
    uvmunmap(pagetable, PGROUNDUP(newsz), npages, 1);
    800012ee:	4685                	li	a3,1
    800012f0:	0007861b          	sext.w	a2,a5
    800012f4:	85ba                	mv	a1,a4
    800012f6:	f39ff0ef          	jal	8000122e <uvmunmap>
    800012fa:	b7d5                	j	800012de <uvmdealloc+0x26>

00000000800012fc <uvmalloc>:
  if(newsz < oldsz)
    800012fc:	0ab66163          	bltu	a2,a1,8000139e <uvmalloc+0xa2>
{
    80001300:	715d                	addi	sp,sp,-80
    80001302:	e486                	sd	ra,72(sp)
    80001304:	e0a2                	sd	s0,64(sp)
    80001306:	f84a                	sd	s2,48(sp)
    80001308:	f052                	sd	s4,32(sp)
    8000130a:	ec56                	sd	s5,24(sp)
    8000130c:	e45e                	sd	s7,8(sp)
    8000130e:	0880                	addi	s0,sp,80
    80001310:	8aaa                	mv	s5,a0
    80001312:	8a32                	mv	s4,a2
  oldsz = PGROUNDUP(oldsz);
    80001314:	6785                	lui	a5,0x1
    80001316:	17fd                	addi	a5,a5,-1 # fff <_entry-0x7ffff001>
    80001318:	95be                	add	a1,a1,a5
    8000131a:	77fd                	lui	a5,0xfffff
    8000131c:	00f5f933          	and	s2,a1,a5
    80001320:	8bca                	mv	s7,s2
  for(a = oldsz; a < newsz; a += PGSIZE){
    80001322:	08c97063          	bgeu	s2,a2,800013a2 <uvmalloc+0xa6>
    80001326:	fc26                	sd	s1,56(sp)
    80001328:	f44e                	sd	s3,40(sp)
    8000132a:	e85a                	sd	s6,16(sp)
    memset(mem, 0, PGSIZE);
    8000132c:	6985                	lui	s3,0x1
    if(mappages(pagetable, a, PGSIZE, (uint64)mem, PTE_R|PTE_U|xperm) != 0){
    8000132e:	0126eb13          	ori	s6,a3,18
    mem = kalloc();
    80001332:	813ff0ef          	jal	80000b44 <kalloc>
    80001336:	84aa                	mv	s1,a0
    if(mem == 0){
    80001338:	c50d                	beqz	a0,80001362 <uvmalloc+0x66>
    memset(mem, 0, PGSIZE);
    8000133a:	864e                	mv	a2,s3
    8000133c:	4581                	li	a1,0
    8000133e:	9bbff0ef          	jal	80000cf8 <memset>
    if(mappages(pagetable, a, PGSIZE, (uint64)mem, PTE_R|PTE_U|xperm) != 0){
    80001342:	875a                	mv	a4,s6
    80001344:	86a6                	mv	a3,s1
    80001346:	864e                	mv	a2,s3
    80001348:	85ca                	mv	a1,s2
    8000134a:	8556                	mv	a0,s5
    8000134c:	d15ff0ef          	jal	80001060 <mappages>
    80001350:	e915                	bnez	a0,80001384 <uvmalloc+0x88>
  for(a = oldsz; a < newsz; a += PGSIZE){
    80001352:	994e                	add	s2,s2,s3
    80001354:	fd496fe3          	bltu	s2,s4,80001332 <uvmalloc+0x36>
  return newsz;
    80001358:	8552                	mv	a0,s4
    8000135a:	74e2                	ld	s1,56(sp)
    8000135c:	79a2                	ld	s3,40(sp)
    8000135e:	6b42                	ld	s6,16(sp)
    80001360:	a811                	j	80001374 <uvmalloc+0x78>
      uvmdealloc(pagetable, a, oldsz);
    80001362:	865e                	mv	a2,s7
    80001364:	85ca                	mv	a1,s2
    80001366:	8556                	mv	a0,s5
    80001368:	f51ff0ef          	jal	800012b8 <uvmdealloc>
      return 0;
    8000136c:	4501                	li	a0,0
    8000136e:	74e2                	ld	s1,56(sp)
    80001370:	79a2                	ld	s3,40(sp)
    80001372:	6b42                	ld	s6,16(sp)
}
    80001374:	60a6                	ld	ra,72(sp)
    80001376:	6406                	ld	s0,64(sp)
    80001378:	7942                	ld	s2,48(sp)
    8000137a:	7a02                	ld	s4,32(sp)
    8000137c:	6ae2                	ld	s5,24(sp)
    8000137e:	6ba2                	ld	s7,8(sp)
    80001380:	6161                	addi	sp,sp,80
    80001382:	8082                	ret
      kfree(mem);
    80001384:	8526                	mv	a0,s1
    80001386:	ed6ff0ef          	jal	80000a5c <kfree>
      uvmdealloc(pagetable, a, oldsz);
    8000138a:	865e                	mv	a2,s7
    8000138c:	85ca                	mv	a1,s2
    8000138e:	8556                	mv	a0,s5
    80001390:	f29ff0ef          	jal	800012b8 <uvmdealloc>
      return 0;
    80001394:	4501                	li	a0,0
    80001396:	74e2                	ld	s1,56(sp)
    80001398:	79a2                	ld	s3,40(sp)
    8000139a:	6b42                	ld	s6,16(sp)
    8000139c:	bfe1                	j	80001374 <uvmalloc+0x78>
    return oldsz;
    8000139e:	852e                	mv	a0,a1
}
    800013a0:	8082                	ret
  return newsz;
    800013a2:	8532                	mv	a0,a2
    800013a4:	bfc1                	j	80001374 <uvmalloc+0x78>

00000000800013a6 <freewalk>:

// Recursively free page-table pages.
// All leaf mappings must already have been removed.
void
freewalk(pagetable_t pagetable)
{
    800013a6:	7179                	addi	sp,sp,-48
    800013a8:	f406                	sd	ra,40(sp)
    800013aa:	f022                	sd	s0,32(sp)
    800013ac:	ec26                	sd	s1,24(sp)
    800013ae:	e84a                	sd	s2,16(sp)
    800013b0:	e44e                	sd	s3,8(sp)
    800013b2:	1800                	addi	s0,sp,48
    800013b4:	89aa                	mv	s3,a0
  // there are 2^9 = 512 PTEs in a page table.
  for(int i = 0; i < 512; i++){
    800013b6:	84aa                	mv	s1,a0
    800013b8:	6905                	lui	s2,0x1
    800013ba:	992a                	add	s2,s2,a0
    800013bc:	a811                	j	800013d0 <freewalk+0x2a>
      // this PTE points to a lower-level page table.
      uint64 child = PTE2PA(pte);
      freewalk((pagetable_t)child);
      pagetable[i] = 0;
    } else if(pte & PTE_V){
      panic("freewalk: leaf");
    800013be:	00006517          	auipc	a0,0x6
    800013c2:	d7a50513          	addi	a0,a0,-646 # 80007138 <etext+0x138>
    800013c6:	c5eff0ef          	jal	80000824 <panic>
  for(int i = 0; i < 512; i++){
    800013ca:	04a1                	addi	s1,s1,8
    800013cc:	03248163          	beq	s1,s2,800013ee <freewalk+0x48>
    pte_t pte = pagetable[i];
    800013d0:	609c                	ld	a5,0(s1)
    if((pte & PTE_V) && (pte & (PTE_R|PTE_W|PTE_X)) == 0){
    800013d2:	0017f713          	andi	a4,a5,1
    800013d6:	db75                	beqz	a4,800013ca <freewalk+0x24>
    800013d8:	00e7f713          	andi	a4,a5,14
    800013dc:	f36d                	bnez	a4,800013be <freewalk+0x18>
      uint64 child = PTE2PA(pte);
    800013de:	83a9                	srli	a5,a5,0xa
      freewalk((pagetable_t)child);
    800013e0:	00c79513          	slli	a0,a5,0xc
    800013e4:	fc3ff0ef          	jal	800013a6 <freewalk>
      pagetable[i] = 0;
    800013e8:	0004b023          	sd	zero,0(s1)
    if((pte & PTE_V) && (pte & (PTE_R|PTE_W|PTE_X)) == 0){
    800013ec:	bff9                	j	800013ca <freewalk+0x24>
    }
  }
  kfree((void*)pagetable);
    800013ee:	854e                	mv	a0,s3
    800013f0:	e6cff0ef          	jal	80000a5c <kfree>
}
    800013f4:	70a2                	ld	ra,40(sp)
    800013f6:	7402                	ld	s0,32(sp)
    800013f8:	64e2                	ld	s1,24(sp)
    800013fa:	6942                	ld	s2,16(sp)
    800013fc:	69a2                	ld	s3,8(sp)
    800013fe:	6145                	addi	sp,sp,48
    80001400:	8082                	ret

0000000080001402 <uvmfree>:

// Free user memory pages,
// then free page-table pages.
void
uvmfree(pagetable_t pagetable, uint64 sz)
{
    80001402:	1101                	addi	sp,sp,-32
    80001404:	ec06                	sd	ra,24(sp)
    80001406:	e822                	sd	s0,16(sp)
    80001408:	e426                	sd	s1,8(sp)
    8000140a:	1000                	addi	s0,sp,32
    8000140c:	84aa                	mv	s1,a0
  if(sz > 0)
    8000140e:	e989                	bnez	a1,80001420 <uvmfree+0x1e>
    uvmunmap(pagetable, 0, PGROUNDUP(sz)/PGSIZE, 1);
  freewalk(pagetable);
    80001410:	8526                	mv	a0,s1
    80001412:	f95ff0ef          	jal	800013a6 <freewalk>
}
    80001416:	60e2                	ld	ra,24(sp)
    80001418:	6442                	ld	s0,16(sp)
    8000141a:	64a2                	ld	s1,8(sp)
    8000141c:	6105                	addi	sp,sp,32
    8000141e:	8082                	ret
    uvmunmap(pagetable, 0, PGROUNDUP(sz)/PGSIZE, 1);
    80001420:	6785                	lui	a5,0x1
    80001422:	17fd                	addi	a5,a5,-1 # fff <_entry-0x7ffff001>
    80001424:	95be                	add	a1,a1,a5
    80001426:	4685                	li	a3,1
    80001428:	00c5d613          	srli	a2,a1,0xc
    8000142c:	4581                	li	a1,0
    8000142e:	e01ff0ef          	jal	8000122e <uvmunmap>
    80001432:	bff9                	j	80001410 <uvmfree+0xe>

0000000080001434 <uvmcopy>:
  pte_t *pte;
  uint64 pa, i;
  uint flags;
  char *mem;

  for(i = 0; i < sz; i += PGSIZE){
    80001434:	ca59                	beqz	a2,800014ca <uvmcopy+0x96>
{
    80001436:	715d                	addi	sp,sp,-80
    80001438:	e486                	sd	ra,72(sp)
    8000143a:	e0a2                	sd	s0,64(sp)
    8000143c:	fc26                	sd	s1,56(sp)
    8000143e:	f84a                	sd	s2,48(sp)
    80001440:	f44e                	sd	s3,40(sp)
    80001442:	f052                	sd	s4,32(sp)
    80001444:	ec56                	sd	s5,24(sp)
    80001446:	e85a                	sd	s6,16(sp)
    80001448:	e45e                	sd	s7,8(sp)
    8000144a:	0880                	addi	s0,sp,80
    8000144c:	8b2a                	mv	s6,a0
    8000144e:	8bae                	mv	s7,a1
    80001450:	8ab2                	mv	s5,a2
  for(i = 0; i < sz; i += PGSIZE){
    80001452:	4481                	li	s1,0
      continue;   // physical page hasn't been allocated
    pa = PTE2PA(*pte);
    flags = PTE_FLAGS(*pte);
    if((mem = kalloc()) == 0)
      goto err;
    memmove(mem, (char*)pa, PGSIZE);
    80001454:	6a05                	lui	s4,0x1
    80001456:	a021                	j	8000145e <uvmcopy+0x2a>
  for(i = 0; i < sz; i += PGSIZE){
    80001458:	94d2                	add	s1,s1,s4
    8000145a:	0554fc63          	bgeu	s1,s5,800014b2 <uvmcopy+0x7e>
    if((pte = walk(old, i, 0)) == 0)
    8000145e:	4601                	li	a2,0
    80001460:	85a6                	mv	a1,s1
    80001462:	855a                	mv	a0,s6
    80001464:	b29ff0ef          	jal	80000f8c <walk>
    80001468:	d965                	beqz	a0,80001458 <uvmcopy+0x24>
    if((*pte & PTE_V) == 0)
    8000146a:	00053983          	ld	s3,0(a0)
    8000146e:	0019f793          	andi	a5,s3,1
    80001472:	d3fd                	beqz	a5,80001458 <uvmcopy+0x24>
    if((mem = kalloc()) == 0)
    80001474:	ed0ff0ef          	jal	80000b44 <kalloc>
    80001478:	892a                	mv	s2,a0
    8000147a:	c11d                	beqz	a0,800014a0 <uvmcopy+0x6c>
    pa = PTE2PA(*pte);
    8000147c:	00a9d593          	srli	a1,s3,0xa
    memmove(mem, (char*)pa, PGSIZE);
    80001480:	8652                	mv	a2,s4
    80001482:	05b2                	slli	a1,a1,0xc
    80001484:	8d5ff0ef          	jal	80000d58 <memmove>
    if(mappages(new, i, PGSIZE, (uint64)mem, flags) != 0){
    80001488:	3ff9f713          	andi	a4,s3,1023
    8000148c:	86ca                	mv	a3,s2
    8000148e:	8652                	mv	a2,s4
    80001490:	85a6                	mv	a1,s1
    80001492:	855e                	mv	a0,s7
    80001494:	bcdff0ef          	jal	80001060 <mappages>
    80001498:	d161                	beqz	a0,80001458 <uvmcopy+0x24>
      kfree(mem);
    8000149a:	854a                	mv	a0,s2
    8000149c:	dc0ff0ef          	jal	80000a5c <kfree>
    }
  }
  return 0;

 err:
  uvmunmap(new, 0, i / PGSIZE, 1);
    800014a0:	4685                	li	a3,1
    800014a2:	00c4d613          	srli	a2,s1,0xc
    800014a6:	4581                	li	a1,0
    800014a8:	855e                	mv	a0,s7
    800014aa:	d85ff0ef          	jal	8000122e <uvmunmap>
  return -1;
    800014ae:	557d                	li	a0,-1
    800014b0:	a011                	j	800014b4 <uvmcopy+0x80>
  return 0;
    800014b2:	4501                	li	a0,0
}
    800014b4:	60a6                	ld	ra,72(sp)
    800014b6:	6406                	ld	s0,64(sp)
    800014b8:	74e2                	ld	s1,56(sp)
    800014ba:	7942                	ld	s2,48(sp)
    800014bc:	79a2                	ld	s3,40(sp)
    800014be:	7a02                	ld	s4,32(sp)
    800014c0:	6ae2                	ld	s5,24(sp)
    800014c2:	6b42                	ld	s6,16(sp)
    800014c4:	6ba2                	ld	s7,8(sp)
    800014c6:	6161                	addi	sp,sp,80
    800014c8:	8082                	ret
  return 0;
    800014ca:	4501                	li	a0,0
}
    800014cc:	8082                	ret

00000000800014ce <uvmclear>:

// mark a PTE invalid for user access.
// used by exec for the user stack guard page.
void
uvmclear(pagetable_t pagetable, uint64 va)
{
    800014ce:	1141                	addi	sp,sp,-16
    800014d0:	e406                	sd	ra,8(sp)
    800014d2:	e022                	sd	s0,0(sp)
    800014d4:	0800                	addi	s0,sp,16
  pte_t *pte;
  
  pte = walk(pagetable, va, 0);
    800014d6:	4601                	li	a2,0
    800014d8:	ab5ff0ef          	jal	80000f8c <walk>
  if(pte == 0)
    800014dc:	c901                	beqz	a0,800014ec <uvmclear+0x1e>
    panic("uvmclear");
  *pte &= ~PTE_U;
    800014de:	611c                	ld	a5,0(a0)
    800014e0:	9bbd                	andi	a5,a5,-17
    800014e2:	e11c                	sd	a5,0(a0)
}
    800014e4:	60a2                	ld	ra,8(sp)
    800014e6:	6402                	ld	s0,0(sp)
    800014e8:	0141                	addi	sp,sp,16
    800014ea:	8082                	ret
    panic("uvmclear");
    800014ec:	00006517          	auipc	a0,0x6
    800014f0:	c5c50513          	addi	a0,a0,-932 # 80007148 <etext+0x148>
    800014f4:	b30ff0ef          	jal	80000824 <panic>

00000000800014f8 <copyinstr>:
copyinstr(pagetable_t pagetable, char *dst, uint64 srcva, uint64 max)
{
  uint64 n, va0, pa0;
  int got_null = 0;

  while(got_null == 0 && max > 0){
    800014f8:	cac5                	beqz	a3,800015a8 <copyinstr+0xb0>
{
    800014fa:	715d                	addi	sp,sp,-80
    800014fc:	e486                	sd	ra,72(sp)
    800014fe:	e0a2                	sd	s0,64(sp)
    80001500:	fc26                	sd	s1,56(sp)
    80001502:	f84a                	sd	s2,48(sp)
    80001504:	f44e                	sd	s3,40(sp)
    80001506:	f052                	sd	s4,32(sp)
    80001508:	ec56                	sd	s5,24(sp)
    8000150a:	e85a                	sd	s6,16(sp)
    8000150c:	e45e                	sd	s7,8(sp)
    8000150e:	0880                	addi	s0,sp,80
    80001510:	8aaa                	mv	s5,a0
    80001512:	84ae                	mv	s1,a1
    80001514:	8bb2                	mv	s7,a2
    80001516:	89b6                	mv	s3,a3
    va0 = PGROUNDDOWN(srcva);
    80001518:	7b7d                	lui	s6,0xfffff
    pa0 = walkaddr(pagetable, va0);
    if(pa0 == 0)
      return -1;
    n = PGSIZE - (srcva - va0);
    8000151a:	6a05                	lui	s4,0x1
    8000151c:	a82d                	j	80001556 <copyinstr+0x5e>
      n = max;

    char *p = (char *) (pa0 + (srcva - va0));
    while(n > 0){
      if(*p == '\0'){
        *dst = '\0';
    8000151e:	00078023          	sb	zero,0(a5)
        got_null = 1;
    80001522:	4785                	li	a5,1
      dst++;
    }

    srcva = va0 + PGSIZE;
  }
  if(got_null){
    80001524:	0017c793          	xori	a5,a5,1
    80001528:	40f0053b          	negw	a0,a5
    return 0;
  } else {
    return -1;
  }
}
    8000152c:	60a6                	ld	ra,72(sp)
    8000152e:	6406                	ld	s0,64(sp)
    80001530:	74e2                	ld	s1,56(sp)
    80001532:	7942                	ld	s2,48(sp)
    80001534:	79a2                	ld	s3,40(sp)
    80001536:	7a02                	ld	s4,32(sp)
    80001538:	6ae2                	ld	s5,24(sp)
    8000153a:	6b42                	ld	s6,16(sp)
    8000153c:	6ba2                	ld	s7,8(sp)
    8000153e:	6161                	addi	sp,sp,80
    80001540:	8082                	ret
    80001542:	fff98713          	addi	a4,s3,-1 # fff <_entry-0x7ffff001>
    80001546:	9726                	add	a4,a4,s1
      --max;
    80001548:	40b709b3          	sub	s3,a4,a1
    srcva = va0 + PGSIZE;
    8000154c:	01490bb3          	add	s7,s2,s4
  while(got_null == 0 && max > 0){
    80001550:	04e58463          	beq	a1,a4,80001598 <copyinstr+0xa0>
{
    80001554:	84be                	mv	s1,a5
    va0 = PGROUNDDOWN(srcva);
    80001556:	016bf933          	and	s2,s7,s6
    pa0 = walkaddr(pagetable, va0);
    8000155a:	85ca                	mv	a1,s2
    8000155c:	8556                	mv	a0,s5
    8000155e:	ac9ff0ef          	jal	80001026 <walkaddr>
    if(pa0 == 0)
    80001562:	cd0d                	beqz	a0,8000159c <copyinstr+0xa4>
    n = PGSIZE - (srcva - va0);
    80001564:	417906b3          	sub	a3,s2,s7
    80001568:	96d2                	add	a3,a3,s4
    if(n > max)
    8000156a:	00d9f363          	bgeu	s3,a3,80001570 <copyinstr+0x78>
    8000156e:	86ce                	mv	a3,s3
    while(n > 0){
    80001570:	ca85                	beqz	a3,800015a0 <copyinstr+0xa8>
    char *p = (char *) (pa0 + (srcva - va0));
    80001572:	01750633          	add	a2,a0,s7
    80001576:	41260633          	sub	a2,a2,s2
    8000157a:	87a6                	mv	a5,s1
      if(*p == '\0'){
    8000157c:	8e05                	sub	a2,a2,s1
    while(n > 0){
    8000157e:	96a6                	add	a3,a3,s1
    80001580:	85be                	mv	a1,a5
      if(*p == '\0'){
    80001582:	00f60733          	add	a4,a2,a5
    80001586:	00074703          	lbu	a4,0(a4)
    8000158a:	db51                	beqz	a4,8000151e <copyinstr+0x26>
        *dst = *p;
    8000158c:	00e78023          	sb	a4,0(a5)
      dst++;
    80001590:	0785                	addi	a5,a5,1
    while(n > 0){
    80001592:	fed797e3          	bne	a5,a3,80001580 <copyinstr+0x88>
    80001596:	b775                	j	80001542 <copyinstr+0x4a>
    80001598:	4781                	li	a5,0
    8000159a:	b769                	j	80001524 <copyinstr+0x2c>
      return -1;
    8000159c:	557d                	li	a0,-1
    8000159e:	b779                	j	8000152c <copyinstr+0x34>
    srcva = va0 + PGSIZE;
    800015a0:	6b85                	lui	s7,0x1
    800015a2:	9bca                	add	s7,s7,s2
    800015a4:	87a6                	mv	a5,s1
    800015a6:	b77d                	j	80001554 <copyinstr+0x5c>
  int got_null = 0;
    800015a8:	4781                	li	a5,0
  if(got_null){
    800015aa:	0017c793          	xori	a5,a5,1
    800015ae:	40f0053b          	negw	a0,a5
}
    800015b2:	8082                	ret

00000000800015b4 <ismapped>:
  return mem;
}

int
ismapped(pagetable_t pagetable, uint64 va)
{
    800015b4:	1141                	addi	sp,sp,-16
    800015b6:	e406                	sd	ra,8(sp)
    800015b8:	e022                	sd	s0,0(sp)
    800015ba:	0800                	addi	s0,sp,16
  pte_t *pte = walk(pagetable, va, 0);
    800015bc:	4601                	li	a2,0
    800015be:	9cfff0ef          	jal	80000f8c <walk>
  if (pte == 0) {
    800015c2:	c119                	beqz	a0,800015c8 <ismapped+0x14>
    return 0;
  }
  if (*pte & PTE_V){
    800015c4:	6108                	ld	a0,0(a0)
    800015c6:	8905                	andi	a0,a0,1
    return 1;
  }
  return 0;
}
    800015c8:	60a2                	ld	ra,8(sp)
    800015ca:	6402                	ld	s0,0(sp)
    800015cc:	0141                	addi	sp,sp,16
    800015ce:	8082                	ret

00000000800015d0 <vmfault>:
{
    800015d0:	7179                	addi	sp,sp,-48
    800015d2:	f406                	sd	ra,40(sp)
    800015d4:	f022                	sd	s0,32(sp)
    800015d6:	e84a                	sd	s2,16(sp)
    800015d8:	e44e                	sd	s3,8(sp)
    800015da:	1800                	addi	s0,sp,48
    800015dc:	89aa                	mv	s3,a0
    800015de:	892e                	mv	s2,a1
  struct proc *p = myproc();
    800015e0:	34e000ef          	jal	8000192e <myproc>
  if (va >= p->sz)
    800015e4:	653c                	ld	a5,72(a0)
    800015e6:	00f96a63          	bltu	s2,a5,800015fa <vmfault+0x2a>
    return 0;
    800015ea:	4981                	li	s3,0
}
    800015ec:	854e                	mv	a0,s3
    800015ee:	70a2                	ld	ra,40(sp)
    800015f0:	7402                	ld	s0,32(sp)
    800015f2:	6942                	ld	s2,16(sp)
    800015f4:	69a2                	ld	s3,8(sp)
    800015f6:	6145                	addi	sp,sp,48
    800015f8:	8082                	ret
    800015fa:	ec26                	sd	s1,24(sp)
    800015fc:	e052                	sd	s4,0(sp)
    800015fe:	84aa                	mv	s1,a0
  va = PGROUNDDOWN(va);
    80001600:	77fd                	lui	a5,0xfffff
    80001602:	00f97a33          	and	s4,s2,a5
  if(ismapped(pagetable, va)) {
    80001606:	85d2                	mv	a1,s4
    80001608:	854e                	mv	a0,s3
    8000160a:	fabff0ef          	jal	800015b4 <ismapped>
    return 0;
    8000160e:	4981                	li	s3,0
  if(ismapped(pagetable, va)) {
    80001610:	c501                	beqz	a0,80001618 <vmfault+0x48>
    80001612:	64e2                	ld	s1,24(sp)
    80001614:	6a02                	ld	s4,0(sp)
    80001616:	bfd9                	j	800015ec <vmfault+0x1c>
  mem = (uint64) kalloc();
    80001618:	d2cff0ef          	jal	80000b44 <kalloc>
    8000161c:	892a                	mv	s2,a0
  if(mem == 0)
    8000161e:	c905                	beqz	a0,8000164e <vmfault+0x7e>
  mem = (uint64) kalloc();
    80001620:	89aa                	mv	s3,a0
  memset((void *) mem, 0, PGSIZE);
    80001622:	6605                	lui	a2,0x1
    80001624:	4581                	li	a1,0
    80001626:	ed2ff0ef          	jal	80000cf8 <memset>
  if (mappages(p->pagetable, va, PGSIZE, mem, PTE_W|PTE_U|PTE_R) != 0) {
    8000162a:	4759                	li	a4,22
    8000162c:	86ca                	mv	a3,s2
    8000162e:	6605                	lui	a2,0x1
    80001630:	85d2                	mv	a1,s4
    80001632:	68a8                	ld	a0,80(s1)
    80001634:	a2dff0ef          	jal	80001060 <mappages>
    80001638:	e501                	bnez	a0,80001640 <vmfault+0x70>
    8000163a:	64e2                	ld	s1,24(sp)
    8000163c:	6a02                	ld	s4,0(sp)
    8000163e:	b77d                	j	800015ec <vmfault+0x1c>
    kfree((void *)mem);
    80001640:	854a                	mv	a0,s2
    80001642:	c1aff0ef          	jal	80000a5c <kfree>
    return 0;
    80001646:	4981                	li	s3,0
    80001648:	64e2                	ld	s1,24(sp)
    8000164a:	6a02                	ld	s4,0(sp)
    8000164c:	b745                	j	800015ec <vmfault+0x1c>
    8000164e:	64e2                	ld	s1,24(sp)
    80001650:	6a02                	ld	s4,0(sp)
    80001652:	bf69                	j	800015ec <vmfault+0x1c>

0000000080001654 <copyout>:
  while(len > 0){
    80001654:	cad1                	beqz	a3,800016e8 <copyout+0x94>
{
    80001656:	711d                	addi	sp,sp,-96
    80001658:	ec86                	sd	ra,88(sp)
    8000165a:	e8a2                	sd	s0,80(sp)
    8000165c:	e4a6                	sd	s1,72(sp)
    8000165e:	e0ca                	sd	s2,64(sp)
    80001660:	fc4e                	sd	s3,56(sp)
    80001662:	f852                	sd	s4,48(sp)
    80001664:	f456                	sd	s5,40(sp)
    80001666:	f05a                	sd	s6,32(sp)
    80001668:	ec5e                	sd	s7,24(sp)
    8000166a:	e862                	sd	s8,16(sp)
    8000166c:	e466                	sd	s9,8(sp)
    8000166e:	e06a                	sd	s10,0(sp)
    80001670:	1080                	addi	s0,sp,96
    80001672:	8baa                	mv	s7,a0
    80001674:	8a2e                	mv	s4,a1
    80001676:	8b32                	mv	s6,a2
    80001678:	8ab6                	mv	s5,a3
    va0 = PGROUNDDOWN(dstva);
    8000167a:	7d7d                	lui	s10,0xfffff
    if(va0 >= MAXVA)
    8000167c:	5cfd                	li	s9,-1
    8000167e:	01acdc93          	srli	s9,s9,0x1a
    n = PGSIZE - (dstva - va0);
    80001682:	6c05                	lui	s8,0x1
    80001684:	a005                	j	800016a4 <copyout+0x50>
    memmove((void *)(pa0 + (dstva - va0)), src, n);
    80001686:	409a0533          	sub	a0,s4,s1
    8000168a:	0009061b          	sext.w	a2,s2
    8000168e:	85da                	mv	a1,s6
    80001690:	954e                	add	a0,a0,s3
    80001692:	ec6ff0ef          	jal	80000d58 <memmove>
    len -= n;
    80001696:	412a8ab3          	sub	s5,s5,s2
    src += n;
    8000169a:	9b4a                	add	s6,s6,s2
    dstva = va0 + PGSIZE;
    8000169c:	01848a33          	add	s4,s1,s8
  while(len > 0){
    800016a0:	040a8263          	beqz	s5,800016e4 <copyout+0x90>
    va0 = PGROUNDDOWN(dstva);
    800016a4:	01aa74b3          	and	s1,s4,s10
    if(va0 >= MAXVA)
    800016a8:	049ce263          	bltu	s9,s1,800016ec <copyout+0x98>
    pa0 = walkaddr(pagetable, va0);
    800016ac:	85a6                	mv	a1,s1
    800016ae:	855e                	mv	a0,s7
    800016b0:	977ff0ef          	jal	80001026 <walkaddr>
    800016b4:	89aa                	mv	s3,a0
    if(pa0 == 0) {
    800016b6:	e901                	bnez	a0,800016c6 <copyout+0x72>
      if((pa0 = vmfault(pagetable, va0, 0)) == 0) {
    800016b8:	4601                	li	a2,0
    800016ba:	85a6                	mv	a1,s1
    800016bc:	855e                	mv	a0,s7
    800016be:	f13ff0ef          	jal	800015d0 <vmfault>
    800016c2:	89aa                	mv	s3,a0
    800016c4:	c139                	beqz	a0,8000170a <copyout+0xb6>
    pte = walk(pagetable, va0, 0);
    800016c6:	4601                	li	a2,0
    800016c8:	85a6                	mv	a1,s1
    800016ca:	855e                	mv	a0,s7
    800016cc:	8c1ff0ef          	jal	80000f8c <walk>
    if((*pte & PTE_W) == 0)
    800016d0:	611c                	ld	a5,0(a0)
    800016d2:	8b91                	andi	a5,a5,4
    800016d4:	cf8d                	beqz	a5,8000170e <copyout+0xba>
    n = PGSIZE - (dstva - va0);
    800016d6:	41448933          	sub	s2,s1,s4
    800016da:	9962                	add	s2,s2,s8
    if(n > len)
    800016dc:	fb2af5e3          	bgeu	s5,s2,80001686 <copyout+0x32>
    800016e0:	8956                	mv	s2,s5
    800016e2:	b755                	j	80001686 <copyout+0x32>
  return 0;
    800016e4:	4501                	li	a0,0
    800016e6:	a021                	j	800016ee <copyout+0x9a>
    800016e8:	4501                	li	a0,0
}
    800016ea:	8082                	ret
      return -1;
    800016ec:	557d                	li	a0,-1
}
    800016ee:	60e6                	ld	ra,88(sp)
    800016f0:	6446                	ld	s0,80(sp)
    800016f2:	64a6                	ld	s1,72(sp)
    800016f4:	6906                	ld	s2,64(sp)
    800016f6:	79e2                	ld	s3,56(sp)
    800016f8:	7a42                	ld	s4,48(sp)
    800016fa:	7aa2                	ld	s5,40(sp)
    800016fc:	7b02                	ld	s6,32(sp)
    800016fe:	6be2                	ld	s7,24(sp)
    80001700:	6c42                	ld	s8,16(sp)
    80001702:	6ca2                	ld	s9,8(sp)
    80001704:	6d02                	ld	s10,0(sp)
    80001706:	6125                	addi	sp,sp,96
    80001708:	8082                	ret
        return -1;
    8000170a:	557d                	li	a0,-1
    8000170c:	b7cd                	j	800016ee <copyout+0x9a>
      return -1;
    8000170e:	557d                	li	a0,-1
    80001710:	bff9                	j	800016ee <copyout+0x9a>

0000000080001712 <copyin>:
  while(len > 0){
    80001712:	c6c9                	beqz	a3,8000179c <copyin+0x8a>
{
    80001714:	715d                	addi	sp,sp,-80
    80001716:	e486                	sd	ra,72(sp)
    80001718:	e0a2                	sd	s0,64(sp)
    8000171a:	fc26                	sd	s1,56(sp)
    8000171c:	f84a                	sd	s2,48(sp)
    8000171e:	f44e                	sd	s3,40(sp)
    80001720:	f052                	sd	s4,32(sp)
    80001722:	ec56                	sd	s5,24(sp)
    80001724:	e85a                	sd	s6,16(sp)
    80001726:	e45e                	sd	s7,8(sp)
    80001728:	e062                	sd	s8,0(sp)
    8000172a:	0880                	addi	s0,sp,80
    8000172c:	8baa                	mv	s7,a0
    8000172e:	8aae                	mv	s5,a1
    80001730:	8932                	mv	s2,a2
    80001732:	8a36                	mv	s4,a3
    va0 = PGROUNDDOWN(srcva);
    80001734:	7c7d                	lui	s8,0xfffff
    n = PGSIZE - (srcva - va0);
    80001736:	6b05                	lui	s6,0x1
    80001738:	a035                	j	80001764 <copyin+0x52>
    8000173a:	412984b3          	sub	s1,s3,s2
    8000173e:	94da                	add	s1,s1,s6
    if(n > len)
    80001740:	009a7363          	bgeu	s4,s1,80001746 <copyin+0x34>
    80001744:	84d2                	mv	s1,s4
    memmove(dst, (void *)(pa0 + (srcva - va0)), n);
    80001746:	413905b3          	sub	a1,s2,s3
    8000174a:	0004861b          	sext.w	a2,s1
    8000174e:	95aa                	add	a1,a1,a0
    80001750:	8556                	mv	a0,s5
    80001752:	e06ff0ef          	jal	80000d58 <memmove>
    len -= n;
    80001756:	409a0a33          	sub	s4,s4,s1
    dst += n;
    8000175a:	9aa6                	add	s5,s5,s1
    srcva = va0 + PGSIZE;
    8000175c:	01698933          	add	s2,s3,s6
  while(len > 0){
    80001760:	020a0163          	beqz	s4,80001782 <copyin+0x70>
    va0 = PGROUNDDOWN(srcva);
    80001764:	018979b3          	and	s3,s2,s8
    pa0 = walkaddr(pagetable, va0);
    80001768:	85ce                	mv	a1,s3
    8000176a:	855e                	mv	a0,s7
    8000176c:	8bbff0ef          	jal	80001026 <walkaddr>
    if(pa0 == 0) {
    80001770:	f569                	bnez	a0,8000173a <copyin+0x28>
      if((pa0 = vmfault(pagetable, va0, 0)) == 0) {
    80001772:	4601                	li	a2,0
    80001774:	85ce                	mv	a1,s3
    80001776:	855e                	mv	a0,s7
    80001778:	e59ff0ef          	jal	800015d0 <vmfault>
    8000177c:	fd5d                	bnez	a0,8000173a <copyin+0x28>
        return -1;
    8000177e:	557d                	li	a0,-1
    80001780:	a011                	j	80001784 <copyin+0x72>
  return 0;
    80001782:	4501                	li	a0,0
}
    80001784:	60a6                	ld	ra,72(sp)
    80001786:	6406                	ld	s0,64(sp)
    80001788:	74e2                	ld	s1,56(sp)
    8000178a:	7942                	ld	s2,48(sp)
    8000178c:	79a2                	ld	s3,40(sp)
    8000178e:	7a02                	ld	s4,32(sp)
    80001790:	6ae2                	ld	s5,24(sp)
    80001792:	6b42                	ld	s6,16(sp)
    80001794:	6ba2                	ld	s7,8(sp)
    80001796:	6c02                	ld	s8,0(sp)
    80001798:	6161                	addi	sp,sp,80
    8000179a:	8082                	ret
  return 0;
    8000179c:	4501                	li	a0,0
}
    8000179e:	8082                	ret

00000000800017a0 <proc_mapstacks>:
// Allocate a page for each process's kernel stack.
// Map it high in memory, followed by an invalid
// guard page.
void
proc_mapstacks(pagetable_t kpgtbl)
{
    800017a0:	715d                	addi	sp,sp,-80
    800017a2:	e486                	sd	ra,72(sp)
    800017a4:	e0a2                	sd	s0,64(sp)
    800017a6:	fc26                	sd	s1,56(sp)
    800017a8:	f84a                	sd	s2,48(sp)
    800017aa:	f44e                	sd	s3,40(sp)
    800017ac:	f052                	sd	s4,32(sp)
    800017ae:	ec56                	sd	s5,24(sp)
    800017b0:	e85a                	sd	s6,16(sp)
    800017b2:	e45e                	sd	s7,8(sp)
    800017b4:	e062                	sd	s8,0(sp)
    800017b6:	0880                	addi	s0,sp,80
    800017b8:	8a2a                	mv	s4,a0
  struct proc *p;
  
  for(p = proc; p < &proc[NPROC]; p++) {
    800017ba:	0000e497          	auipc	s1,0xe
    800017be:	5ce48493          	addi	s1,s1,1486 # 8000fd88 <proc>
    char *pa = kalloc();
    if(pa == 0)
      panic("kalloc");
    uint64 va = KSTACK((int) (p - proc));
    800017c2:	8c26                	mv	s8,s1
    800017c4:	000a57b7          	lui	a5,0xa5
    800017c8:	fa578793          	addi	a5,a5,-91 # a4fa5 <_entry-0x7ff5b05b>
    800017cc:	07b2                	slli	a5,a5,0xc
    800017ce:	fa578793          	addi	a5,a5,-91
    800017d2:	4fa50937          	lui	s2,0x4fa50
    800017d6:	a4f90913          	addi	s2,s2,-1457 # 4fa4fa4f <_entry-0x305b05b1>
    800017da:	1902                	slli	s2,s2,0x20
    800017dc:	993e                	add	s2,s2,a5
    800017de:	040009b7          	lui	s3,0x4000
    800017e2:	19fd                	addi	s3,s3,-1 # 3ffffff <_entry-0x7c000001>
    800017e4:	09b2                	slli	s3,s3,0xc
    kvmmap(kpgtbl, va, (uint64)pa, PGSIZE, PTE_R | PTE_W);
    800017e6:	4b99                	li	s7,6
    800017e8:	6b05                	lui	s6,0x1
  for(p = proc; p < &proc[NPROC]; p++) {
    800017ea:	00014a97          	auipc	s5,0x14
    800017ee:	f9ea8a93          	addi	s5,s5,-98 # 80015788 <tickslock>
    char *pa = kalloc();
    800017f2:	b52ff0ef          	jal	80000b44 <kalloc>
    800017f6:	862a                	mv	a2,a0
    if(pa == 0)
    800017f8:	c121                	beqz	a0,80001838 <proc_mapstacks+0x98>
    uint64 va = KSTACK((int) (p - proc));
    800017fa:	418485b3          	sub	a1,s1,s8
    800017fe:	858d                	srai	a1,a1,0x3
    80001800:	032585b3          	mul	a1,a1,s2
    80001804:	05b6                	slli	a1,a1,0xd
    80001806:	6789                	lui	a5,0x2
    80001808:	9dbd                	addw	a1,a1,a5
    kvmmap(kpgtbl, va, (uint64)pa, PGSIZE, PTE_R | PTE_W);
    8000180a:	875e                	mv	a4,s7
    8000180c:	86da                	mv	a3,s6
    8000180e:	40b985b3          	sub	a1,s3,a1
    80001812:	8552                	mv	a0,s4
    80001814:	903ff0ef          	jal	80001116 <kvmmap>
  for(p = proc; p < &proc[NPROC]; p++) {
    80001818:	16848493          	addi	s1,s1,360
    8000181c:	fd549be3          	bne	s1,s5,800017f2 <proc_mapstacks+0x52>
  }
}
    80001820:	60a6                	ld	ra,72(sp)
    80001822:	6406                	ld	s0,64(sp)
    80001824:	74e2                	ld	s1,56(sp)
    80001826:	7942                	ld	s2,48(sp)
    80001828:	79a2                	ld	s3,40(sp)
    8000182a:	7a02                	ld	s4,32(sp)
    8000182c:	6ae2                	ld	s5,24(sp)
    8000182e:	6b42                	ld	s6,16(sp)
    80001830:	6ba2                	ld	s7,8(sp)
    80001832:	6c02                	ld	s8,0(sp)
    80001834:	6161                	addi	sp,sp,80
    80001836:	8082                	ret
      panic("kalloc");
    80001838:	00006517          	auipc	a0,0x6
    8000183c:	92050513          	addi	a0,a0,-1760 # 80007158 <etext+0x158>
    80001840:	fe5fe0ef          	jal	80000824 <panic>

0000000080001844 <procinit>:

// initialize the proc table.
void
procinit(void)
{
    80001844:	7139                	addi	sp,sp,-64
    80001846:	fc06                	sd	ra,56(sp)
    80001848:	f822                	sd	s0,48(sp)
    8000184a:	f426                	sd	s1,40(sp)
    8000184c:	f04a                	sd	s2,32(sp)
    8000184e:	ec4e                	sd	s3,24(sp)
    80001850:	e852                	sd	s4,16(sp)
    80001852:	e456                	sd	s5,8(sp)
    80001854:	e05a                	sd	s6,0(sp)
    80001856:	0080                	addi	s0,sp,64
  struct proc *p;
  
  initlock(&pid_lock, "nextpid");
    80001858:	00006597          	auipc	a1,0x6
    8000185c:	90858593          	addi	a1,a1,-1784 # 80007160 <etext+0x160>
    80001860:	0000e517          	auipc	a0,0xe
    80001864:	0f850513          	addi	a0,a0,248 # 8000f958 <pid_lock>
    80001868:	b36ff0ef          	jal	80000b9e <initlock>
  initlock(&wait_lock, "wait_lock");
    8000186c:	00006597          	auipc	a1,0x6
    80001870:	8fc58593          	addi	a1,a1,-1796 # 80007168 <etext+0x168>
    80001874:	0000e517          	auipc	a0,0xe
    80001878:	0fc50513          	addi	a0,a0,252 # 8000f970 <wait_lock>
    8000187c:	b22ff0ef          	jal	80000b9e <initlock>
  for(p = proc; p < &proc[NPROC]; p++) {
    80001880:	0000e497          	auipc	s1,0xe
    80001884:	50848493          	addi	s1,s1,1288 # 8000fd88 <proc>
      initlock(&p->lock, "proc");
    80001888:	00006b17          	auipc	s6,0x6
    8000188c:	8f0b0b13          	addi	s6,s6,-1808 # 80007178 <etext+0x178>
      p->state = UNUSED;
      p->kstack = KSTACK((int) (p - proc));
    80001890:	8aa6                	mv	s5,s1
    80001892:	000a57b7          	lui	a5,0xa5
    80001896:	fa578793          	addi	a5,a5,-91 # a4fa5 <_entry-0x7ff5b05b>
    8000189a:	07b2                	slli	a5,a5,0xc
    8000189c:	fa578793          	addi	a5,a5,-91
    800018a0:	4fa50937          	lui	s2,0x4fa50
    800018a4:	a4f90913          	addi	s2,s2,-1457 # 4fa4fa4f <_entry-0x305b05b1>
    800018a8:	1902                	slli	s2,s2,0x20
    800018aa:	993e                	add	s2,s2,a5
    800018ac:	040009b7          	lui	s3,0x4000
    800018b0:	19fd                	addi	s3,s3,-1 # 3ffffff <_entry-0x7c000001>
    800018b2:	09b2                	slli	s3,s3,0xc
  for(p = proc; p < &proc[NPROC]; p++) {
    800018b4:	00014a17          	auipc	s4,0x14
    800018b8:	ed4a0a13          	addi	s4,s4,-300 # 80015788 <tickslock>
      initlock(&p->lock, "proc");
    800018bc:	85da                	mv	a1,s6
    800018be:	8526                	mv	a0,s1
    800018c0:	adeff0ef          	jal	80000b9e <initlock>
      p->state = UNUSED;
    800018c4:	0004ac23          	sw	zero,24(s1)
      p->kstack = KSTACK((int) (p - proc));
    800018c8:	415487b3          	sub	a5,s1,s5
    800018cc:	878d                	srai	a5,a5,0x3
    800018ce:	032787b3          	mul	a5,a5,s2
    800018d2:	07b6                	slli	a5,a5,0xd
    800018d4:	6709                	lui	a4,0x2
    800018d6:	9fb9                	addw	a5,a5,a4
    800018d8:	40f987b3          	sub	a5,s3,a5
    800018dc:	e0bc                	sd	a5,64(s1)
  for(p = proc; p < &proc[NPROC]; p++) {
    800018de:	16848493          	addi	s1,s1,360
    800018e2:	fd449de3          	bne	s1,s4,800018bc <procinit+0x78>
  }
}
    800018e6:	70e2                	ld	ra,56(sp)
    800018e8:	7442                	ld	s0,48(sp)
    800018ea:	74a2                	ld	s1,40(sp)
    800018ec:	7902                	ld	s2,32(sp)
    800018ee:	69e2                	ld	s3,24(sp)
    800018f0:	6a42                	ld	s4,16(sp)
    800018f2:	6aa2                	ld	s5,8(sp)
    800018f4:	6b02                	ld	s6,0(sp)
    800018f6:	6121                	addi	sp,sp,64
    800018f8:	8082                	ret

00000000800018fa <cpuid>:
// Must be called with interrupts disabled,
// to prevent race with process being moved
// to a different CPU.
int
cpuid()
{
    800018fa:	1141                	addi	sp,sp,-16
    800018fc:	e406                	sd	ra,8(sp)
    800018fe:	e022                	sd	s0,0(sp)
    80001900:	0800                	addi	s0,sp,16
  asm volatile("mv %0, tp" : "=r" (x) );
    80001902:	8512                	mv	a0,tp
  int id = r_tp();
  return id;
}
    80001904:	2501                	sext.w	a0,a0
    80001906:	60a2                	ld	ra,8(sp)
    80001908:	6402                	ld	s0,0(sp)
    8000190a:	0141                	addi	sp,sp,16
    8000190c:	8082                	ret

000000008000190e <mycpu>:

// Return this CPU's cpu struct.
// Interrupts must be disabled.
struct cpu*
mycpu(void)
{
    8000190e:	1141                	addi	sp,sp,-16
    80001910:	e406                	sd	ra,8(sp)
    80001912:	e022                	sd	s0,0(sp)
    80001914:	0800                	addi	s0,sp,16
    80001916:	8792                	mv	a5,tp
  int id = cpuid();
  struct cpu *c = &cpus[id];
    80001918:	2781                	sext.w	a5,a5
    8000191a:	079e                	slli	a5,a5,0x7
  return c;
}
    8000191c:	0000e517          	auipc	a0,0xe
    80001920:	06c50513          	addi	a0,a0,108 # 8000f988 <cpus>
    80001924:	953e                	add	a0,a0,a5
    80001926:	60a2                	ld	ra,8(sp)
    80001928:	6402                	ld	s0,0(sp)
    8000192a:	0141                	addi	sp,sp,16
    8000192c:	8082                	ret

000000008000192e <myproc>:

// Return the current struct proc *, or zero if none.
struct proc*
myproc(void)
{
    8000192e:	1101                	addi	sp,sp,-32
    80001930:	ec06                	sd	ra,24(sp)
    80001932:	e822                	sd	s0,16(sp)
    80001934:	e426                	sd	s1,8(sp)
    80001936:	1000                	addi	s0,sp,32
  push_off();
    80001938:	aacff0ef          	jal	80000be4 <push_off>
    8000193c:	8792                	mv	a5,tp
  struct cpu *c = mycpu();
  struct proc *p = c->proc;
    8000193e:	2781                	sext.w	a5,a5
    80001940:	079e                	slli	a5,a5,0x7
    80001942:	0000e717          	auipc	a4,0xe
    80001946:	01670713          	addi	a4,a4,22 # 8000f958 <pid_lock>
    8000194a:	97ba                	add	a5,a5,a4
    8000194c:	7b9c                	ld	a5,48(a5)
    8000194e:	84be                	mv	s1,a5
  pop_off();
    80001950:	b1cff0ef          	jal	80000c6c <pop_off>
  return p;
}
    80001954:	8526                	mv	a0,s1
    80001956:	60e2                	ld	ra,24(sp)
    80001958:	6442                	ld	s0,16(sp)
    8000195a:	64a2                	ld	s1,8(sp)
    8000195c:	6105                	addi	sp,sp,32
    8000195e:	8082                	ret

0000000080001960 <forkret>:

// A fork child's very first scheduling by scheduler()
// will swtch to forkret.
void
forkret(void)
{
    80001960:	7179                	addi	sp,sp,-48
    80001962:	f406                	sd	ra,40(sp)
    80001964:	f022                	sd	s0,32(sp)
    80001966:	ec26                	sd	s1,24(sp)
    80001968:	1800                	addi	s0,sp,48
  extern char userret[];
  static int first = 1;
  struct proc *p = myproc();
    8000196a:	fc5ff0ef          	jal	8000192e <myproc>
    8000196e:	84aa                	mv	s1,a0

  // Still holding p->lock from scheduler.
  release(&p->lock);
    80001970:	b4cff0ef          	jal	80000cbc <release>

  if (first) {
    80001974:	00006797          	auipc	a5,0x6
    80001978:	eac7a783          	lw	a5,-340(a5) # 80007820 <first.1>
    8000197c:	cf95                	beqz	a5,800019b8 <forkret+0x58>
    // File system initialization must be run in the context of a
    // regular process (e.g., because it calls sleep), and thus cannot
    // be run from main().
    fsinit(ROOTDEV);
    8000197e:	4505                	li	a0,1
    80001980:	36b010ef          	jal	800034ea <fsinit>

    first = 0;
    80001984:	00006797          	auipc	a5,0x6
    80001988:	e807ae23          	sw	zero,-356(a5) # 80007820 <first.1>
    // ensure other cores see first=0.
    __sync_synchronize();
    8000198c:	0330000f          	fence	rw,rw

    // We can invoke kexec() now that file system is initialized.
    // Put the return value (argc) of kexec into a0.
    p->trapframe->a0 = kexec("/init", (char *[]){ "/init", 0 });
    80001990:	00005797          	auipc	a5,0x5
    80001994:	7f078793          	addi	a5,a5,2032 # 80007180 <etext+0x180>
    80001998:	fcf43823          	sd	a5,-48(s0)
    8000199c:	fc043c23          	sd	zero,-40(s0)
    800019a0:	fd040593          	addi	a1,s0,-48
    800019a4:	853e                	mv	a0,a5
    800019a6:	4c3020ef          	jal	80004668 <kexec>
    800019aa:	6cbc                	ld	a5,88(s1)
    800019ac:	fba8                	sd	a0,112(a5)
    if (p->trapframe->a0 == -1) {
    800019ae:	6cbc                	ld	a5,88(s1)
    800019b0:	7bb8                	ld	a4,112(a5)
    800019b2:	57fd                	li	a5,-1
    800019b4:	02f70d63          	beq	a4,a5,800019ee <forkret+0x8e>
      panic("exec");
    }
  }

  // return to user space, mimicing usertrap()'s return.
  prepare_return();
    800019b8:	2b1000ef          	jal	80002468 <prepare_return>
  uint64 satp = MAKE_SATP(p->pagetable);
    800019bc:	68a8                	ld	a0,80(s1)
    800019be:	8131                	srli	a0,a0,0xc
  uint64 trampoline_userret = TRAMPOLINE + (userret - trampoline);
    800019c0:	04000737          	lui	a4,0x4000
    800019c4:	177d                	addi	a4,a4,-1 # 3ffffff <_entry-0x7c000001>
    800019c6:	0732                	slli	a4,a4,0xc
    800019c8:	00004797          	auipc	a5,0x4
    800019cc:	6d478793          	addi	a5,a5,1748 # 8000609c <userret>
    800019d0:	00004697          	auipc	a3,0x4
    800019d4:	63068693          	addi	a3,a3,1584 # 80006000 <_trampoline>
    800019d8:	8f95                	sub	a5,a5,a3
    800019da:	97ba                	add	a5,a5,a4
  ((void (*)(uint64))trampoline_userret)(satp);
    800019dc:	577d                	li	a4,-1
    800019de:	177e                	slli	a4,a4,0x3f
    800019e0:	8d59                	or	a0,a0,a4
    800019e2:	9782                	jalr	a5
}
    800019e4:	70a2                	ld	ra,40(sp)
    800019e6:	7402                	ld	s0,32(sp)
    800019e8:	64e2                	ld	s1,24(sp)
    800019ea:	6145                	addi	sp,sp,48
    800019ec:	8082                	ret
      panic("exec");
    800019ee:	00005517          	auipc	a0,0x5
    800019f2:	79a50513          	addi	a0,a0,1946 # 80007188 <etext+0x188>
    800019f6:	e2ffe0ef          	jal	80000824 <panic>

00000000800019fa <allocpid>:
{
    800019fa:	1101                	addi	sp,sp,-32
    800019fc:	ec06                	sd	ra,24(sp)
    800019fe:	e822                	sd	s0,16(sp)
    80001a00:	e426                	sd	s1,8(sp)
    80001a02:	1000                	addi	s0,sp,32
  acquire(&pid_lock);
    80001a04:	0000e517          	auipc	a0,0xe
    80001a08:	f5450513          	addi	a0,a0,-172 # 8000f958 <pid_lock>
    80001a0c:	a1cff0ef          	jal	80000c28 <acquire>
  pid = nextpid;
    80001a10:	00006797          	auipc	a5,0x6
    80001a14:	e1478793          	addi	a5,a5,-492 # 80007824 <nextpid>
    80001a18:	4384                	lw	s1,0(a5)
  nextpid = nextpid + 1;
    80001a1a:	0014871b          	addiw	a4,s1,1
    80001a1e:	c398                	sw	a4,0(a5)
  release(&pid_lock);
    80001a20:	0000e517          	auipc	a0,0xe
    80001a24:	f3850513          	addi	a0,a0,-200 # 8000f958 <pid_lock>
    80001a28:	a94ff0ef          	jal	80000cbc <release>
}
    80001a2c:	8526                	mv	a0,s1
    80001a2e:	60e2                	ld	ra,24(sp)
    80001a30:	6442                	ld	s0,16(sp)
    80001a32:	64a2                	ld	s1,8(sp)
    80001a34:	6105                	addi	sp,sp,32
    80001a36:	8082                	ret

0000000080001a38 <proc_pagetable>:
{
    80001a38:	1101                	addi	sp,sp,-32
    80001a3a:	ec06                	sd	ra,24(sp)
    80001a3c:	e822                	sd	s0,16(sp)
    80001a3e:	e426                	sd	s1,8(sp)
    80001a40:	e04a                	sd	s2,0(sp)
    80001a42:	1000                	addi	s0,sp,32
    80001a44:	892a                	mv	s2,a0
  pagetable = uvmcreate();
    80001a46:	fc2ff0ef          	jal	80001208 <uvmcreate>
    80001a4a:	84aa                	mv	s1,a0
  if(pagetable == 0)
    80001a4c:	cd05                	beqz	a0,80001a84 <proc_pagetable+0x4c>
  if(mappages(pagetable, TRAMPOLINE, PGSIZE,
    80001a4e:	4729                	li	a4,10
    80001a50:	00004697          	auipc	a3,0x4
    80001a54:	5b068693          	addi	a3,a3,1456 # 80006000 <_trampoline>
    80001a58:	6605                	lui	a2,0x1
    80001a5a:	040005b7          	lui	a1,0x4000
    80001a5e:	15fd                	addi	a1,a1,-1 # 3ffffff <_entry-0x7c000001>
    80001a60:	05b2                	slli	a1,a1,0xc
    80001a62:	dfeff0ef          	jal	80001060 <mappages>
    80001a66:	02054663          	bltz	a0,80001a92 <proc_pagetable+0x5a>
  if(mappages(pagetable, TRAPFRAME, PGSIZE,
    80001a6a:	4719                	li	a4,6
    80001a6c:	05893683          	ld	a3,88(s2)
    80001a70:	6605                	lui	a2,0x1
    80001a72:	020005b7          	lui	a1,0x2000
    80001a76:	15fd                	addi	a1,a1,-1 # 1ffffff <_entry-0x7e000001>
    80001a78:	05b6                	slli	a1,a1,0xd
    80001a7a:	8526                	mv	a0,s1
    80001a7c:	de4ff0ef          	jal	80001060 <mappages>
    80001a80:	00054f63          	bltz	a0,80001a9e <proc_pagetable+0x66>
}
    80001a84:	8526                	mv	a0,s1
    80001a86:	60e2                	ld	ra,24(sp)
    80001a88:	6442                	ld	s0,16(sp)
    80001a8a:	64a2                	ld	s1,8(sp)
    80001a8c:	6902                	ld	s2,0(sp)
    80001a8e:	6105                	addi	sp,sp,32
    80001a90:	8082                	ret
    uvmfree(pagetable, 0);
    80001a92:	4581                	li	a1,0
    80001a94:	8526                	mv	a0,s1
    80001a96:	96dff0ef          	jal	80001402 <uvmfree>
    return 0;
    80001a9a:	4481                	li	s1,0
    80001a9c:	b7e5                	j	80001a84 <proc_pagetable+0x4c>
    uvmunmap(pagetable, TRAMPOLINE, 1, 0);
    80001a9e:	4681                	li	a3,0
    80001aa0:	4605                	li	a2,1
    80001aa2:	040005b7          	lui	a1,0x4000
    80001aa6:	15fd                	addi	a1,a1,-1 # 3ffffff <_entry-0x7c000001>
    80001aa8:	05b2                	slli	a1,a1,0xc
    80001aaa:	8526                	mv	a0,s1
    80001aac:	f82ff0ef          	jal	8000122e <uvmunmap>
    uvmfree(pagetable, 0);
    80001ab0:	4581                	li	a1,0
    80001ab2:	8526                	mv	a0,s1
    80001ab4:	94fff0ef          	jal	80001402 <uvmfree>
    return 0;
    80001ab8:	4481                	li	s1,0
    80001aba:	b7e9                	j	80001a84 <proc_pagetable+0x4c>

0000000080001abc <proc_freepagetable>:
{
    80001abc:	1101                	addi	sp,sp,-32
    80001abe:	ec06                	sd	ra,24(sp)
    80001ac0:	e822                	sd	s0,16(sp)
    80001ac2:	e426                	sd	s1,8(sp)
    80001ac4:	e04a                	sd	s2,0(sp)
    80001ac6:	1000                	addi	s0,sp,32
    80001ac8:	84aa                	mv	s1,a0
    80001aca:	892e                	mv	s2,a1
  uvmunmap(pagetable, TRAMPOLINE, 1, 0);
    80001acc:	4681                	li	a3,0
    80001ace:	4605                	li	a2,1
    80001ad0:	040005b7          	lui	a1,0x4000
    80001ad4:	15fd                	addi	a1,a1,-1 # 3ffffff <_entry-0x7c000001>
    80001ad6:	05b2                	slli	a1,a1,0xc
    80001ad8:	f56ff0ef          	jal	8000122e <uvmunmap>
  uvmunmap(pagetable, TRAPFRAME, 1, 0);
    80001adc:	4681                	li	a3,0
    80001ade:	4605                	li	a2,1
    80001ae0:	020005b7          	lui	a1,0x2000
    80001ae4:	15fd                	addi	a1,a1,-1 # 1ffffff <_entry-0x7e000001>
    80001ae6:	05b6                	slli	a1,a1,0xd
    80001ae8:	8526                	mv	a0,s1
    80001aea:	f44ff0ef          	jal	8000122e <uvmunmap>
  uvmfree(pagetable, sz);
    80001aee:	85ca                	mv	a1,s2
    80001af0:	8526                	mv	a0,s1
    80001af2:	911ff0ef          	jal	80001402 <uvmfree>
}
    80001af6:	60e2                	ld	ra,24(sp)
    80001af8:	6442                	ld	s0,16(sp)
    80001afa:	64a2                	ld	s1,8(sp)
    80001afc:	6902                	ld	s2,0(sp)
    80001afe:	6105                	addi	sp,sp,32
    80001b00:	8082                	ret

0000000080001b02 <freeproc>:
{
    80001b02:	1101                	addi	sp,sp,-32
    80001b04:	ec06                	sd	ra,24(sp)
    80001b06:	e822                	sd	s0,16(sp)
    80001b08:	e426                	sd	s1,8(sp)
    80001b0a:	1000                	addi	s0,sp,32
    80001b0c:	84aa                	mv	s1,a0
  if(p->trapframe)
    80001b0e:	6d28                	ld	a0,88(a0)
    80001b10:	c119                	beqz	a0,80001b16 <freeproc+0x14>
    kfree((void*)p->trapframe);
    80001b12:	f4bfe0ef          	jal	80000a5c <kfree>
  p->trapframe = 0;
    80001b16:	0404bc23          	sd	zero,88(s1)
  if(p->pagetable)
    80001b1a:	68a8                	ld	a0,80(s1)
    80001b1c:	c501                	beqz	a0,80001b24 <freeproc+0x22>
    proc_freepagetable(p->pagetable, p->sz);
    80001b1e:	64ac                	ld	a1,72(s1)
    80001b20:	f9dff0ef          	jal	80001abc <proc_freepagetable>
  p->pagetable = 0;
    80001b24:	0404b823          	sd	zero,80(s1)
  p->sz = 0;
    80001b28:	0404b423          	sd	zero,72(s1)
  p->pid = 0;
    80001b2c:	0204a823          	sw	zero,48(s1)
  p->parent = 0;
    80001b30:	0204bc23          	sd	zero,56(s1)
  p->name[0] = 0;
    80001b34:	14048c23          	sb	zero,344(s1)
  p->chan = 0;
    80001b38:	0204b023          	sd	zero,32(s1)
  p->killed = 0;
    80001b3c:	0204a423          	sw	zero,40(s1)
  p->xstate = 0;
    80001b40:	0204a623          	sw	zero,44(s1)
  p->state = UNUSED;
    80001b44:	0004ac23          	sw	zero,24(s1)
}
    80001b48:	60e2                	ld	ra,24(sp)
    80001b4a:	6442                	ld	s0,16(sp)
    80001b4c:	64a2                	ld	s1,8(sp)
    80001b4e:	6105                	addi	sp,sp,32
    80001b50:	8082                	ret

0000000080001b52 <allocproc>:
{
    80001b52:	1101                	addi	sp,sp,-32
    80001b54:	ec06                	sd	ra,24(sp)
    80001b56:	e822                	sd	s0,16(sp)
    80001b58:	e426                	sd	s1,8(sp)
    80001b5a:	e04a                	sd	s2,0(sp)
    80001b5c:	1000                	addi	s0,sp,32
  for(p = proc; p < &proc[NPROC]; p++) {
    80001b5e:	0000e497          	auipc	s1,0xe
    80001b62:	22a48493          	addi	s1,s1,554 # 8000fd88 <proc>
    80001b66:	00014917          	auipc	s2,0x14
    80001b6a:	c2290913          	addi	s2,s2,-990 # 80015788 <tickslock>
    acquire(&p->lock);
    80001b6e:	8526                	mv	a0,s1
    80001b70:	8b8ff0ef          	jal	80000c28 <acquire>
    if(p->state == UNUSED) {
    80001b74:	4c9c                	lw	a5,24(s1)
    80001b76:	cb91                	beqz	a5,80001b8a <allocproc+0x38>
      release(&p->lock);
    80001b78:	8526                	mv	a0,s1
    80001b7a:	942ff0ef          	jal	80000cbc <release>
  for(p = proc; p < &proc[NPROC]; p++) {
    80001b7e:	16848493          	addi	s1,s1,360
    80001b82:	ff2496e3          	bne	s1,s2,80001b6e <allocproc+0x1c>
  return 0;
    80001b86:	4481                	li	s1,0
    80001b88:	a089                	j	80001bca <allocproc+0x78>
  p->pid = allocpid();
    80001b8a:	e71ff0ef          	jal	800019fa <allocpid>
    80001b8e:	d888                	sw	a0,48(s1)
  p->state = USED;
    80001b90:	4785                	li	a5,1
    80001b92:	cc9c                	sw	a5,24(s1)
  if((p->trapframe = (struct trapframe *)kalloc()) == 0){
    80001b94:	fb1fe0ef          	jal	80000b44 <kalloc>
    80001b98:	892a                	mv	s2,a0
    80001b9a:	eca8                	sd	a0,88(s1)
    80001b9c:	cd15                	beqz	a0,80001bd8 <allocproc+0x86>
  p->pagetable = proc_pagetable(p);
    80001b9e:	8526                	mv	a0,s1
    80001ba0:	e99ff0ef          	jal	80001a38 <proc_pagetable>
    80001ba4:	892a                	mv	s2,a0
    80001ba6:	e8a8                	sd	a0,80(s1)
  if(p->pagetable == 0){
    80001ba8:	c121                	beqz	a0,80001be8 <allocproc+0x96>
  memset(&p->context, 0, sizeof(p->context));
    80001baa:	07000613          	li	a2,112
    80001bae:	4581                	li	a1,0
    80001bb0:	06048513          	addi	a0,s1,96
    80001bb4:	944ff0ef          	jal	80000cf8 <memset>
  p->context.ra = (uint64)forkret;
    80001bb8:	00000797          	auipc	a5,0x0
    80001bbc:	da878793          	addi	a5,a5,-600 # 80001960 <forkret>
    80001bc0:	f0bc                	sd	a5,96(s1)
  p->context.sp = p->kstack + PGSIZE;
    80001bc2:	60bc                	ld	a5,64(s1)
    80001bc4:	6705                	lui	a4,0x1
    80001bc6:	97ba                	add	a5,a5,a4
    80001bc8:	f4bc                	sd	a5,104(s1)
}
    80001bca:	8526                	mv	a0,s1
    80001bcc:	60e2                	ld	ra,24(sp)
    80001bce:	6442                	ld	s0,16(sp)
    80001bd0:	64a2                	ld	s1,8(sp)
    80001bd2:	6902                	ld	s2,0(sp)
    80001bd4:	6105                	addi	sp,sp,32
    80001bd6:	8082                	ret
    freeproc(p);
    80001bd8:	8526                	mv	a0,s1
    80001bda:	f29ff0ef          	jal	80001b02 <freeproc>
    release(&p->lock);
    80001bde:	8526                	mv	a0,s1
    80001be0:	8dcff0ef          	jal	80000cbc <release>
    return 0;
    80001be4:	84ca                	mv	s1,s2
    80001be6:	b7d5                	j	80001bca <allocproc+0x78>
    freeproc(p);
    80001be8:	8526                	mv	a0,s1
    80001bea:	f19ff0ef          	jal	80001b02 <freeproc>
    release(&p->lock);
    80001bee:	8526                	mv	a0,s1
    80001bf0:	8ccff0ef          	jal	80000cbc <release>
    return 0;
    80001bf4:	84ca                	mv	s1,s2
    80001bf6:	bfd1                	j	80001bca <allocproc+0x78>

0000000080001bf8 <userinit>:
{
    80001bf8:	1101                	addi	sp,sp,-32
    80001bfa:	ec06                	sd	ra,24(sp)
    80001bfc:	e822                	sd	s0,16(sp)
    80001bfe:	e426                	sd	s1,8(sp)
    80001c00:	1000                	addi	s0,sp,32
  p = allocproc();
    80001c02:	f51ff0ef          	jal	80001b52 <allocproc>
    80001c06:	84aa                	mv	s1,a0
  initproc = p;
    80001c08:	00006797          	auipc	a5,0x6
    80001c0c:	c4a7b423          	sd	a0,-952(a5) # 80007850 <initproc>
  p->cwd = namei("/");
    80001c10:	00005517          	auipc	a0,0x5
    80001c14:	58050513          	addi	a0,a0,1408 # 80007190 <etext+0x190>
    80001c18:	60d010ef          	jal	80003a24 <namei>
    80001c1c:	14a4b823          	sd	a0,336(s1)
  p->state = RUNNABLE;
    80001c20:	478d                	li	a5,3
    80001c22:	cc9c                	sw	a5,24(s1)
  release(&p->lock);
    80001c24:	8526                	mv	a0,s1
    80001c26:	896ff0ef          	jal	80000cbc <release>
}
    80001c2a:	60e2                	ld	ra,24(sp)
    80001c2c:	6442                	ld	s0,16(sp)
    80001c2e:	64a2                	ld	s1,8(sp)
    80001c30:	6105                	addi	sp,sp,32
    80001c32:	8082                	ret

0000000080001c34 <growproc>:
{
    80001c34:	1101                	addi	sp,sp,-32
    80001c36:	ec06                	sd	ra,24(sp)
    80001c38:	e822                	sd	s0,16(sp)
    80001c3a:	e426                	sd	s1,8(sp)
    80001c3c:	e04a                	sd	s2,0(sp)
    80001c3e:	1000                	addi	s0,sp,32
    80001c40:	892a                	mv	s2,a0
  struct proc *p = myproc();
    80001c42:	cedff0ef          	jal	8000192e <myproc>
    80001c46:	84aa                	mv	s1,a0
  sz = p->sz;
    80001c48:	652c                	ld	a1,72(a0)
  if(n > 0){
    80001c4a:	01204c63          	bgtz	s2,80001c62 <growproc+0x2e>
  } else if(n < 0){
    80001c4e:	02094463          	bltz	s2,80001c76 <growproc+0x42>
  p->sz = sz;
    80001c52:	e4ac                	sd	a1,72(s1)
  return 0;
    80001c54:	4501                	li	a0,0
}
    80001c56:	60e2                	ld	ra,24(sp)
    80001c58:	6442                	ld	s0,16(sp)
    80001c5a:	64a2                	ld	s1,8(sp)
    80001c5c:	6902                	ld	s2,0(sp)
    80001c5e:	6105                	addi	sp,sp,32
    80001c60:	8082                	ret
    if((sz = uvmalloc(p->pagetable, sz, sz + n, PTE_W)) == 0) {
    80001c62:	4691                	li	a3,4
    80001c64:	00b90633          	add	a2,s2,a1
    80001c68:	6928                	ld	a0,80(a0)
    80001c6a:	e92ff0ef          	jal	800012fc <uvmalloc>
    80001c6e:	85aa                	mv	a1,a0
    80001c70:	f16d                	bnez	a0,80001c52 <growproc+0x1e>
      return -1;
    80001c72:	557d                	li	a0,-1
    80001c74:	b7cd                	j	80001c56 <growproc+0x22>
    sz = uvmdealloc(p->pagetable, sz, sz + n);
    80001c76:	00b90633          	add	a2,s2,a1
    80001c7a:	6928                	ld	a0,80(a0)
    80001c7c:	e3cff0ef          	jal	800012b8 <uvmdealloc>
    80001c80:	85aa                	mv	a1,a0
    80001c82:	bfc1                	j	80001c52 <growproc+0x1e>

0000000080001c84 <kfork>:
{
    80001c84:	7139                	addi	sp,sp,-64
    80001c86:	fc06                	sd	ra,56(sp)
    80001c88:	f822                	sd	s0,48(sp)
    80001c8a:	f426                	sd	s1,40(sp)
    80001c8c:	e456                	sd	s5,8(sp)
    80001c8e:	0080                	addi	s0,sp,64
  struct proc *p = myproc();
    80001c90:	c9fff0ef          	jal	8000192e <myproc>
    80001c94:	8aaa                	mv	s5,a0
  if((np = allocproc()) == 0){
    80001c96:	ebdff0ef          	jal	80001b52 <allocproc>
    80001c9a:	0e050a63          	beqz	a0,80001d8e <kfork+0x10a>
    80001c9e:	e852                	sd	s4,16(sp)
    80001ca0:	8a2a                	mv	s4,a0
  if(uvmcopy(p->pagetable, np->pagetable, p->sz) < 0){
    80001ca2:	048ab603          	ld	a2,72(s5)
    80001ca6:	692c                	ld	a1,80(a0)
    80001ca8:	050ab503          	ld	a0,80(s5)
    80001cac:	f88ff0ef          	jal	80001434 <uvmcopy>
    80001cb0:	04054863          	bltz	a0,80001d00 <kfork+0x7c>
    80001cb4:	f04a                	sd	s2,32(sp)
    80001cb6:	ec4e                	sd	s3,24(sp)
  np->sz = p->sz;
    80001cb8:	048ab783          	ld	a5,72(s5)
    80001cbc:	04fa3423          	sd	a5,72(s4)
  *(np->trapframe) = *(p->trapframe);
    80001cc0:	058ab683          	ld	a3,88(s5)
    80001cc4:	87b6                	mv	a5,a3
    80001cc6:	058a3703          	ld	a4,88(s4)
    80001cca:	12068693          	addi	a3,a3,288
    80001cce:	6388                	ld	a0,0(a5)
    80001cd0:	678c                	ld	a1,8(a5)
    80001cd2:	6b90                	ld	a2,16(a5)
    80001cd4:	e308                	sd	a0,0(a4)
    80001cd6:	e70c                	sd	a1,8(a4)
    80001cd8:	eb10                	sd	a2,16(a4)
    80001cda:	6f90                	ld	a2,24(a5)
    80001cdc:	ef10                	sd	a2,24(a4)
    80001cde:	02078793          	addi	a5,a5,32
    80001ce2:	02070713          	addi	a4,a4,32 # 1020 <_entry-0x7fffefe0>
    80001ce6:	fed794e3          	bne	a5,a3,80001cce <kfork+0x4a>
  np->trapframe->a0 = 0;
    80001cea:	058a3783          	ld	a5,88(s4)
    80001cee:	0607b823          	sd	zero,112(a5)
  for(i = 0; i < NOFILE; i++)
    80001cf2:	0d0a8493          	addi	s1,s5,208
    80001cf6:	0d0a0913          	addi	s2,s4,208
    80001cfa:	150a8993          	addi	s3,s5,336
    80001cfe:	a831                	j	80001d1a <kfork+0x96>
    freeproc(np);
    80001d00:	8552                	mv	a0,s4
    80001d02:	e01ff0ef          	jal	80001b02 <freeproc>
    release(&np->lock);
    80001d06:	8552                	mv	a0,s4
    80001d08:	fb5fe0ef          	jal	80000cbc <release>
    return -1;
    80001d0c:	54fd                	li	s1,-1
    80001d0e:	6a42                	ld	s4,16(sp)
    80001d10:	a885                	j	80001d80 <kfork+0xfc>
  for(i = 0; i < NOFILE; i++)
    80001d12:	04a1                	addi	s1,s1,8
    80001d14:	0921                	addi	s2,s2,8
    80001d16:	01348963          	beq	s1,s3,80001d28 <kfork+0xa4>
    if(p->ofile[i])
    80001d1a:	6088                	ld	a0,0(s1)
    80001d1c:	d97d                	beqz	a0,80001d12 <kfork+0x8e>
      np->ofile[i] = filedup(p->ofile[i]);
    80001d1e:	2c2020ef          	jal	80003fe0 <filedup>
    80001d22:	00a93023          	sd	a0,0(s2)
    80001d26:	b7f5                	j	80001d12 <kfork+0x8e>
  np->cwd = idup(p->cwd);
    80001d28:	150ab503          	ld	a0,336(s5)
    80001d2c:	494010ef          	jal	800031c0 <idup>
    80001d30:	14aa3823          	sd	a0,336(s4)
  safestrcpy(np->name, p->name, sizeof(p->name));
    80001d34:	4641                	li	a2,16
    80001d36:	158a8593          	addi	a1,s5,344
    80001d3a:	158a0513          	addi	a0,s4,344
    80001d3e:	90eff0ef          	jal	80000e4c <safestrcpy>
  pid = np->pid;
    80001d42:	030a2483          	lw	s1,48(s4)
  release(&np->lock);
    80001d46:	8552                	mv	a0,s4
    80001d48:	f75fe0ef          	jal	80000cbc <release>
  acquire(&wait_lock);
    80001d4c:	0000e517          	auipc	a0,0xe
    80001d50:	c2450513          	addi	a0,a0,-988 # 8000f970 <wait_lock>
    80001d54:	ed5fe0ef          	jal	80000c28 <acquire>
  np->parent = p;
    80001d58:	035a3c23          	sd	s5,56(s4)
  release(&wait_lock);
    80001d5c:	0000e517          	auipc	a0,0xe
    80001d60:	c1450513          	addi	a0,a0,-1004 # 8000f970 <wait_lock>
    80001d64:	f59fe0ef          	jal	80000cbc <release>
  acquire(&np->lock);
    80001d68:	8552                	mv	a0,s4
    80001d6a:	ebffe0ef          	jal	80000c28 <acquire>
  np->state = RUNNABLE;
    80001d6e:	478d                	li	a5,3
    80001d70:	00fa2c23          	sw	a5,24(s4)
  release(&np->lock);
    80001d74:	8552                	mv	a0,s4
    80001d76:	f47fe0ef          	jal	80000cbc <release>
  return pid;
    80001d7a:	7902                	ld	s2,32(sp)
    80001d7c:	69e2                	ld	s3,24(sp)
    80001d7e:	6a42                	ld	s4,16(sp)
}
    80001d80:	8526                	mv	a0,s1
    80001d82:	70e2                	ld	ra,56(sp)
    80001d84:	7442                	ld	s0,48(sp)
    80001d86:	74a2                	ld	s1,40(sp)
    80001d88:	6aa2                	ld	s5,8(sp)
    80001d8a:	6121                	addi	sp,sp,64
    80001d8c:	8082                	ret
    return -1;
    80001d8e:	54fd                	li	s1,-1
    80001d90:	bfc5                	j	80001d80 <kfork+0xfc>

0000000080001d92 <scheduler>:
{
    80001d92:	715d                	addi	sp,sp,-80
    80001d94:	e486                	sd	ra,72(sp)
    80001d96:	e0a2                	sd	s0,64(sp)
    80001d98:	fc26                	sd	s1,56(sp)
    80001d9a:	f84a                	sd	s2,48(sp)
    80001d9c:	f44e                	sd	s3,40(sp)
    80001d9e:	f052                	sd	s4,32(sp)
    80001da0:	ec56                	sd	s5,24(sp)
    80001da2:	e85a                	sd	s6,16(sp)
    80001da4:	e45e                	sd	s7,8(sp)
    80001da6:	e062                	sd	s8,0(sp)
    80001da8:	0880                	addi	s0,sp,80
    80001daa:	8792                	mv	a5,tp
  int id = r_tp();
    80001dac:	2781                	sext.w	a5,a5
  c->proc = 0;
    80001dae:	00779b13          	slli	s6,a5,0x7
    80001db2:	0000e717          	auipc	a4,0xe
    80001db6:	ba670713          	addi	a4,a4,-1114 # 8000f958 <pid_lock>
    80001dba:	975a                	add	a4,a4,s6
    80001dbc:	02073823          	sd	zero,48(a4)
        swtch(&c->context, &p->context);
    80001dc0:	0000e717          	auipc	a4,0xe
    80001dc4:	bd070713          	addi	a4,a4,-1072 # 8000f990 <cpus+0x8>
    80001dc8:	9b3a                	add	s6,s6,a4
        p->state = RUNNING;
    80001dca:	4c11                	li	s8,4
        c->proc = p;
    80001dcc:	079e                	slli	a5,a5,0x7
    80001dce:	0000ea17          	auipc	s4,0xe
    80001dd2:	b8aa0a13          	addi	s4,s4,-1142 # 8000f958 <pid_lock>
    80001dd6:	9a3e                	add	s4,s4,a5
        found = 1;
    80001dd8:	4b85                	li	s7,1
    80001dda:	a83d                	j	80001e18 <scheduler+0x86>
      release(&p->lock);
    80001ddc:	8526                	mv	a0,s1
    80001dde:	edffe0ef          	jal	80000cbc <release>
    for(p = proc; p < &proc[NPROC]; p++) {
    80001de2:	16848493          	addi	s1,s1,360
    80001de6:	03248563          	beq	s1,s2,80001e10 <scheduler+0x7e>
      acquire(&p->lock);
    80001dea:	8526                	mv	a0,s1
    80001dec:	e3dfe0ef          	jal	80000c28 <acquire>
      if(p->state == RUNNABLE) {
    80001df0:	4c9c                	lw	a5,24(s1)
    80001df2:	ff3795e3          	bne	a5,s3,80001ddc <scheduler+0x4a>
        p->state = RUNNING;
    80001df6:	0184ac23          	sw	s8,24(s1)
        c->proc = p;
    80001dfa:	029a3823          	sd	s1,48(s4)
        swtch(&c->context, &p->context);
    80001dfe:	06048593          	addi	a1,s1,96
    80001e02:	855a                	mv	a0,s6
    80001e04:	5ba000ef          	jal	800023be <swtch>
        c->proc = 0;
    80001e08:	020a3823          	sd	zero,48(s4)
        found = 1;
    80001e0c:	8ade                	mv	s5,s7
    80001e0e:	b7f9                	j	80001ddc <scheduler+0x4a>
    if(found == 0) {
    80001e10:	000a9463          	bnez	s5,80001e18 <scheduler+0x86>
      asm volatile("wfi");
    80001e14:	10500073          	wfi
  asm volatile("csrr %0, sstatus" : "=r" (x) );
    80001e18:	100027f3          	csrr	a5,sstatus
  w_sstatus(r_sstatus() | SSTATUS_SIE);
    80001e1c:	0027e793          	ori	a5,a5,2
  asm volatile("csrw sstatus, %0" : : "r" (x));
    80001e20:	10079073          	csrw	sstatus,a5
  asm volatile("csrr %0, sstatus" : "=r" (x) );
    80001e24:	100027f3          	csrr	a5,sstatus
  w_sstatus(r_sstatus() & ~SSTATUS_SIE);
    80001e28:	9bf5                	andi	a5,a5,-3
  asm volatile("csrw sstatus, %0" : : "r" (x));
    80001e2a:	10079073          	csrw	sstatus,a5
    int found = 0;
    80001e2e:	4a81                	li	s5,0
    for(p = proc; p < &proc[NPROC]; p++) {
    80001e30:	0000e497          	auipc	s1,0xe
    80001e34:	f5848493          	addi	s1,s1,-168 # 8000fd88 <proc>
      if(p->state == RUNNABLE) {
    80001e38:	498d                	li	s3,3
    for(p = proc; p < &proc[NPROC]; p++) {
    80001e3a:	00014917          	auipc	s2,0x14
    80001e3e:	94e90913          	addi	s2,s2,-1714 # 80015788 <tickslock>
    80001e42:	b765                	j	80001dea <scheduler+0x58>

0000000080001e44 <sched>:
{
    80001e44:	7179                	addi	sp,sp,-48
    80001e46:	f406                	sd	ra,40(sp)
    80001e48:	f022                	sd	s0,32(sp)
    80001e4a:	ec26                	sd	s1,24(sp)
    80001e4c:	e84a                	sd	s2,16(sp)
    80001e4e:	e44e                	sd	s3,8(sp)
    80001e50:	1800                	addi	s0,sp,48
  struct proc *p = myproc();
    80001e52:	addff0ef          	jal	8000192e <myproc>
    80001e56:	84aa                	mv	s1,a0
  if(!holding(&p->lock))
    80001e58:	d61fe0ef          	jal	80000bb8 <holding>
    80001e5c:	c935                	beqz	a0,80001ed0 <sched+0x8c>
  asm volatile("mv %0, tp" : "=r" (x) );
    80001e5e:	8792                	mv	a5,tp
  if(mycpu()->noff != 1)
    80001e60:	2781                	sext.w	a5,a5
    80001e62:	079e                	slli	a5,a5,0x7
    80001e64:	0000e717          	auipc	a4,0xe
    80001e68:	af470713          	addi	a4,a4,-1292 # 8000f958 <pid_lock>
    80001e6c:	97ba                	add	a5,a5,a4
    80001e6e:	0a87a703          	lw	a4,168(a5)
    80001e72:	4785                	li	a5,1
    80001e74:	06f71463          	bne	a4,a5,80001edc <sched+0x98>
  if(p->state == RUNNING)
    80001e78:	4c98                	lw	a4,24(s1)
    80001e7a:	4791                	li	a5,4
    80001e7c:	06f70663          	beq	a4,a5,80001ee8 <sched+0xa4>
  asm volatile("csrr %0, sstatus" : "=r" (x) );
    80001e80:	100027f3          	csrr	a5,sstatus
  return (x & SSTATUS_SIE) != 0;
    80001e84:	8b89                	andi	a5,a5,2
  if(intr_get())
    80001e86:	e7bd                	bnez	a5,80001ef4 <sched+0xb0>
  asm volatile("mv %0, tp" : "=r" (x) );
    80001e88:	8792                	mv	a5,tp
  intena = mycpu()->intena;
    80001e8a:	0000e917          	auipc	s2,0xe
    80001e8e:	ace90913          	addi	s2,s2,-1330 # 8000f958 <pid_lock>
    80001e92:	2781                	sext.w	a5,a5
    80001e94:	079e                	slli	a5,a5,0x7
    80001e96:	97ca                	add	a5,a5,s2
    80001e98:	0ac7a983          	lw	s3,172(a5)
    80001e9c:	8792                	mv	a5,tp
  swtch(&p->context, &mycpu()->context);
    80001e9e:	2781                	sext.w	a5,a5
    80001ea0:	079e                	slli	a5,a5,0x7
    80001ea2:	07a1                	addi	a5,a5,8
    80001ea4:	0000e597          	auipc	a1,0xe
    80001ea8:	ae458593          	addi	a1,a1,-1308 # 8000f988 <cpus>
    80001eac:	95be                	add	a1,a1,a5
    80001eae:	06048513          	addi	a0,s1,96
    80001eb2:	50c000ef          	jal	800023be <swtch>
    80001eb6:	8792                	mv	a5,tp
  mycpu()->intena = intena;
    80001eb8:	2781                	sext.w	a5,a5
    80001eba:	079e                	slli	a5,a5,0x7
    80001ebc:	993e                	add	s2,s2,a5
    80001ebe:	0b392623          	sw	s3,172(s2)
}
    80001ec2:	70a2                	ld	ra,40(sp)
    80001ec4:	7402                	ld	s0,32(sp)
    80001ec6:	64e2                	ld	s1,24(sp)
    80001ec8:	6942                	ld	s2,16(sp)
    80001eca:	69a2                	ld	s3,8(sp)
    80001ecc:	6145                	addi	sp,sp,48
    80001ece:	8082                	ret
    panic("sched p->lock");
    80001ed0:	00005517          	auipc	a0,0x5
    80001ed4:	2c850513          	addi	a0,a0,712 # 80007198 <etext+0x198>
    80001ed8:	94dfe0ef          	jal	80000824 <panic>
    panic("sched locks");
    80001edc:	00005517          	auipc	a0,0x5
    80001ee0:	2cc50513          	addi	a0,a0,716 # 800071a8 <etext+0x1a8>
    80001ee4:	941fe0ef          	jal	80000824 <panic>
    panic("sched RUNNING");
    80001ee8:	00005517          	auipc	a0,0x5
    80001eec:	2d050513          	addi	a0,a0,720 # 800071b8 <etext+0x1b8>
    80001ef0:	935fe0ef          	jal	80000824 <panic>
    panic("sched interruptible");
    80001ef4:	00005517          	auipc	a0,0x5
    80001ef8:	2d450513          	addi	a0,a0,724 # 800071c8 <etext+0x1c8>
    80001efc:	929fe0ef          	jal	80000824 <panic>

0000000080001f00 <yield>:
{
    80001f00:	1101                	addi	sp,sp,-32
    80001f02:	ec06                	sd	ra,24(sp)
    80001f04:	e822                	sd	s0,16(sp)
    80001f06:	e426                	sd	s1,8(sp)
    80001f08:	1000                	addi	s0,sp,32
  struct proc *p = myproc();
    80001f0a:	a25ff0ef          	jal	8000192e <myproc>
    80001f0e:	84aa                	mv	s1,a0
  acquire(&p->lock);
    80001f10:	d19fe0ef          	jal	80000c28 <acquire>
  p->state = RUNNABLE;
    80001f14:	478d                	li	a5,3
    80001f16:	cc9c                	sw	a5,24(s1)
  sched();
    80001f18:	f2dff0ef          	jal	80001e44 <sched>
  release(&p->lock);
    80001f1c:	8526                	mv	a0,s1
    80001f1e:	d9ffe0ef          	jal	80000cbc <release>
}
    80001f22:	60e2                	ld	ra,24(sp)
    80001f24:	6442                	ld	s0,16(sp)
    80001f26:	64a2                	ld	s1,8(sp)
    80001f28:	6105                	addi	sp,sp,32
    80001f2a:	8082                	ret

0000000080001f2c <sleep>:

// Sleep on channel chan, releasing condition lock lk.
// Re-acquires lk when awakened.
void
sleep(void *chan, struct spinlock *lk)
{
    80001f2c:	7179                	addi	sp,sp,-48
    80001f2e:	f406                	sd	ra,40(sp)
    80001f30:	f022                	sd	s0,32(sp)
    80001f32:	ec26                	sd	s1,24(sp)
    80001f34:	e84a                	sd	s2,16(sp)
    80001f36:	e44e                	sd	s3,8(sp)
    80001f38:	1800                	addi	s0,sp,48
    80001f3a:	89aa                	mv	s3,a0
    80001f3c:	892e                	mv	s2,a1
  struct proc *p = myproc();
    80001f3e:	9f1ff0ef          	jal	8000192e <myproc>
    80001f42:	84aa                	mv	s1,a0
  // Once we hold p->lock, we can be
  // guaranteed that we won't miss any wakeup
  // (wakeup locks p->lock),
  // so it's okay to release lk.

  acquire(&p->lock);  //DOC: sleeplock1
    80001f44:	ce5fe0ef          	jal	80000c28 <acquire>
  release(lk);
    80001f48:	854a                	mv	a0,s2
    80001f4a:	d73fe0ef          	jal	80000cbc <release>

  // Go to sleep.
  p->chan = chan;
    80001f4e:	0334b023          	sd	s3,32(s1)
  p->state = SLEEPING;
    80001f52:	4789                	li	a5,2
    80001f54:	cc9c                	sw	a5,24(s1)

  sched();
    80001f56:	eefff0ef          	jal	80001e44 <sched>

  // Tidy up.
  p->chan = 0;
    80001f5a:	0204b023          	sd	zero,32(s1)

  // Reacquire original lock.
  release(&p->lock);
    80001f5e:	8526                	mv	a0,s1
    80001f60:	d5dfe0ef          	jal	80000cbc <release>
  acquire(lk);
    80001f64:	854a                	mv	a0,s2
    80001f66:	cc3fe0ef          	jal	80000c28 <acquire>
}
    80001f6a:	70a2                	ld	ra,40(sp)
    80001f6c:	7402                	ld	s0,32(sp)
    80001f6e:	64e2                	ld	s1,24(sp)
    80001f70:	6942                	ld	s2,16(sp)
    80001f72:	69a2                	ld	s3,8(sp)
    80001f74:	6145                	addi	sp,sp,48
    80001f76:	8082                	ret

0000000080001f78 <wakeup>:

// Wake up all processes sleeping on channel chan.
// Caller should hold the condition lock.
void
wakeup(void *chan)
{
    80001f78:	7139                	addi	sp,sp,-64
    80001f7a:	fc06                	sd	ra,56(sp)
    80001f7c:	f822                	sd	s0,48(sp)
    80001f7e:	f426                	sd	s1,40(sp)
    80001f80:	f04a                	sd	s2,32(sp)
    80001f82:	ec4e                	sd	s3,24(sp)
    80001f84:	e852                	sd	s4,16(sp)
    80001f86:	e456                	sd	s5,8(sp)
    80001f88:	0080                	addi	s0,sp,64
    80001f8a:	8a2a                	mv	s4,a0
  struct proc *p;

  for(p = proc; p < &proc[NPROC]; p++) {
    80001f8c:	0000e497          	auipc	s1,0xe
    80001f90:	dfc48493          	addi	s1,s1,-516 # 8000fd88 <proc>
    if(p != myproc()){
      acquire(&p->lock);
      if(p->state == SLEEPING && p->chan == chan) {
    80001f94:	4989                	li	s3,2
        p->state = RUNNABLE;
    80001f96:	4a8d                	li	s5,3
  for(p = proc; p < &proc[NPROC]; p++) {
    80001f98:	00013917          	auipc	s2,0x13
    80001f9c:	7f090913          	addi	s2,s2,2032 # 80015788 <tickslock>
    80001fa0:	a801                	j	80001fb0 <wakeup+0x38>
      }
      release(&p->lock);
    80001fa2:	8526                	mv	a0,s1
    80001fa4:	d19fe0ef          	jal	80000cbc <release>
  for(p = proc; p < &proc[NPROC]; p++) {
    80001fa8:	16848493          	addi	s1,s1,360
    80001fac:	03248263          	beq	s1,s2,80001fd0 <wakeup+0x58>
    if(p != myproc()){
    80001fb0:	97fff0ef          	jal	8000192e <myproc>
    80001fb4:	fe950ae3          	beq	a0,s1,80001fa8 <wakeup+0x30>
      acquire(&p->lock);
    80001fb8:	8526                	mv	a0,s1
    80001fba:	c6ffe0ef          	jal	80000c28 <acquire>
      if(p->state == SLEEPING && p->chan == chan) {
    80001fbe:	4c9c                	lw	a5,24(s1)
    80001fc0:	ff3791e3          	bne	a5,s3,80001fa2 <wakeup+0x2a>
    80001fc4:	709c                	ld	a5,32(s1)
    80001fc6:	fd479ee3          	bne	a5,s4,80001fa2 <wakeup+0x2a>
        p->state = RUNNABLE;
    80001fca:	0154ac23          	sw	s5,24(s1)
    80001fce:	bfd1                	j	80001fa2 <wakeup+0x2a>
    }
  }
}
    80001fd0:	70e2                	ld	ra,56(sp)
    80001fd2:	7442                	ld	s0,48(sp)
    80001fd4:	74a2                	ld	s1,40(sp)
    80001fd6:	7902                	ld	s2,32(sp)
    80001fd8:	69e2                	ld	s3,24(sp)
    80001fda:	6a42                	ld	s4,16(sp)
    80001fdc:	6aa2                	ld	s5,8(sp)
    80001fde:	6121                	addi	sp,sp,64
    80001fe0:	8082                	ret

0000000080001fe2 <reparent>:
{
    80001fe2:	7179                	addi	sp,sp,-48
    80001fe4:	f406                	sd	ra,40(sp)
    80001fe6:	f022                	sd	s0,32(sp)
    80001fe8:	ec26                	sd	s1,24(sp)
    80001fea:	e84a                	sd	s2,16(sp)
    80001fec:	e44e                	sd	s3,8(sp)
    80001fee:	e052                	sd	s4,0(sp)
    80001ff0:	1800                	addi	s0,sp,48
    80001ff2:	892a                	mv	s2,a0
  for(pp = proc; pp < &proc[NPROC]; pp++){
    80001ff4:	0000e497          	auipc	s1,0xe
    80001ff8:	d9448493          	addi	s1,s1,-620 # 8000fd88 <proc>
      pp->parent = initproc;
    80001ffc:	00006a17          	auipc	s4,0x6
    80002000:	854a0a13          	addi	s4,s4,-1964 # 80007850 <initproc>
  for(pp = proc; pp < &proc[NPROC]; pp++){
    80002004:	00013997          	auipc	s3,0x13
    80002008:	78498993          	addi	s3,s3,1924 # 80015788 <tickslock>
    8000200c:	a029                	j	80002016 <reparent+0x34>
    8000200e:	16848493          	addi	s1,s1,360
    80002012:	01348b63          	beq	s1,s3,80002028 <reparent+0x46>
    if(pp->parent == p){
    80002016:	7c9c                	ld	a5,56(s1)
    80002018:	ff279be3          	bne	a5,s2,8000200e <reparent+0x2c>
      pp->parent = initproc;
    8000201c:	000a3503          	ld	a0,0(s4)
    80002020:	fc88                	sd	a0,56(s1)
      wakeup(initproc);
    80002022:	f57ff0ef          	jal	80001f78 <wakeup>
    80002026:	b7e5                	j	8000200e <reparent+0x2c>
}
    80002028:	70a2                	ld	ra,40(sp)
    8000202a:	7402                	ld	s0,32(sp)
    8000202c:	64e2                	ld	s1,24(sp)
    8000202e:	6942                	ld	s2,16(sp)
    80002030:	69a2                	ld	s3,8(sp)
    80002032:	6a02                	ld	s4,0(sp)
    80002034:	6145                	addi	sp,sp,48
    80002036:	8082                	ret

0000000080002038 <kexit>:
{
    80002038:	7179                	addi	sp,sp,-48
    8000203a:	f406                	sd	ra,40(sp)
    8000203c:	f022                	sd	s0,32(sp)
    8000203e:	ec26                	sd	s1,24(sp)
    80002040:	e84a                	sd	s2,16(sp)
    80002042:	e44e                	sd	s3,8(sp)
    80002044:	e052                	sd	s4,0(sp)
    80002046:	1800                	addi	s0,sp,48
    80002048:	8a2a                	mv	s4,a0
  struct proc *p = myproc();
    8000204a:	8e5ff0ef          	jal	8000192e <myproc>
    8000204e:	89aa                	mv	s3,a0
  if(p == initproc)
    80002050:	00006797          	auipc	a5,0x6
    80002054:	8007b783          	ld	a5,-2048(a5) # 80007850 <initproc>
    80002058:	0d050493          	addi	s1,a0,208
    8000205c:	15050913          	addi	s2,a0,336
    80002060:	00a79b63          	bne	a5,a0,80002076 <kexit+0x3e>
    panic("init exiting");
    80002064:	00005517          	auipc	a0,0x5
    80002068:	17c50513          	addi	a0,a0,380 # 800071e0 <etext+0x1e0>
    8000206c:	fb8fe0ef          	jal	80000824 <panic>
  for(int fd = 0; fd < NOFILE; fd++){
    80002070:	04a1                	addi	s1,s1,8
    80002072:	01248963          	beq	s1,s2,80002084 <kexit+0x4c>
    if(p->ofile[fd]){
    80002076:	6088                	ld	a0,0(s1)
    80002078:	dd65                	beqz	a0,80002070 <kexit+0x38>
      fileclose(f);
    8000207a:	7ad010ef          	jal	80004026 <fileclose>
      p->ofile[fd] = 0;
    8000207e:	0004b023          	sd	zero,0(s1)
    80002082:	b7fd                	j	80002070 <kexit+0x38>
  begin_op();
    80002084:	37f010ef          	jal	80003c02 <begin_op>
  iput(p->cwd);
    80002088:	1509b503          	ld	a0,336(s3)
    8000208c:	2ec010ef          	jal	80003378 <iput>
  end_op();
    80002090:	3e3010ef          	jal	80003c72 <end_op>
  p->cwd = 0;
    80002094:	1409b823          	sd	zero,336(s3)
  acquire(&wait_lock);
    80002098:	0000e517          	auipc	a0,0xe
    8000209c:	8d850513          	addi	a0,a0,-1832 # 8000f970 <wait_lock>
    800020a0:	b89fe0ef          	jal	80000c28 <acquire>
  reparent(p);
    800020a4:	854e                	mv	a0,s3
    800020a6:	f3dff0ef          	jal	80001fe2 <reparent>
  wakeup(p->parent);
    800020aa:	0389b503          	ld	a0,56(s3)
    800020ae:	ecbff0ef          	jal	80001f78 <wakeup>
  acquire(&p->lock);
    800020b2:	854e                	mv	a0,s3
    800020b4:	b75fe0ef          	jal	80000c28 <acquire>
  p->xstate = status;
    800020b8:	0349a623          	sw	s4,44(s3)
  p->state = ZOMBIE;
    800020bc:	4795                	li	a5,5
    800020be:	00f9ac23          	sw	a5,24(s3)
  release(&wait_lock);
    800020c2:	0000e517          	auipc	a0,0xe
    800020c6:	8ae50513          	addi	a0,a0,-1874 # 8000f970 <wait_lock>
    800020ca:	bf3fe0ef          	jal	80000cbc <release>
  sched();
    800020ce:	d77ff0ef          	jal	80001e44 <sched>
  panic("zombie exit");
    800020d2:	00005517          	auipc	a0,0x5
    800020d6:	11e50513          	addi	a0,a0,286 # 800071f0 <etext+0x1f0>
    800020da:	f4afe0ef          	jal	80000824 <panic>

00000000800020de <kkill>:
// Kill the process with the given pid.
// The victim won't exit until it tries to return
// to user space (see usertrap() in trap.c).
int
kkill(int pid)
{
    800020de:	7179                	addi	sp,sp,-48
    800020e0:	f406                	sd	ra,40(sp)
    800020e2:	f022                	sd	s0,32(sp)
    800020e4:	ec26                	sd	s1,24(sp)
    800020e6:	e84a                	sd	s2,16(sp)
    800020e8:	e44e                	sd	s3,8(sp)
    800020ea:	1800                	addi	s0,sp,48
    800020ec:	892a                	mv	s2,a0
  struct proc *p;

  for(p = proc; p < &proc[NPROC]; p++){
    800020ee:	0000e497          	auipc	s1,0xe
    800020f2:	c9a48493          	addi	s1,s1,-870 # 8000fd88 <proc>
    800020f6:	00013997          	auipc	s3,0x13
    800020fa:	69298993          	addi	s3,s3,1682 # 80015788 <tickslock>
    acquire(&p->lock);
    800020fe:	8526                	mv	a0,s1
    80002100:	b29fe0ef          	jal	80000c28 <acquire>
    if(p->pid == pid){
    80002104:	589c                	lw	a5,48(s1)
    80002106:	01278b63          	beq	a5,s2,8000211c <kkill+0x3e>
        p->state = RUNNABLE;
      }
      release(&p->lock);
      return 0;
    }
    release(&p->lock);
    8000210a:	8526                	mv	a0,s1
    8000210c:	bb1fe0ef          	jal	80000cbc <release>
  for(p = proc; p < &proc[NPROC]; p++){
    80002110:	16848493          	addi	s1,s1,360
    80002114:	ff3495e3          	bne	s1,s3,800020fe <kkill+0x20>
  }
  return -1;
    80002118:	557d                	li	a0,-1
    8000211a:	a819                	j	80002130 <kkill+0x52>
      p->killed = 1;
    8000211c:	4785                	li	a5,1
    8000211e:	d49c                	sw	a5,40(s1)
      if(p->state == SLEEPING){
    80002120:	4c98                	lw	a4,24(s1)
    80002122:	4789                	li	a5,2
    80002124:	00f70d63          	beq	a4,a5,8000213e <kkill+0x60>
      release(&p->lock);
    80002128:	8526                	mv	a0,s1
    8000212a:	b93fe0ef          	jal	80000cbc <release>
      return 0;
    8000212e:	4501                	li	a0,0
}
    80002130:	70a2                	ld	ra,40(sp)
    80002132:	7402                	ld	s0,32(sp)
    80002134:	64e2                	ld	s1,24(sp)
    80002136:	6942                	ld	s2,16(sp)
    80002138:	69a2                	ld	s3,8(sp)
    8000213a:	6145                	addi	sp,sp,48
    8000213c:	8082                	ret
        p->state = RUNNABLE;
    8000213e:	478d                	li	a5,3
    80002140:	cc9c                	sw	a5,24(s1)
    80002142:	b7dd                	j	80002128 <kkill+0x4a>

0000000080002144 <setkilled>:

void
setkilled(struct proc *p)
{
    80002144:	1101                	addi	sp,sp,-32
    80002146:	ec06                	sd	ra,24(sp)
    80002148:	e822                	sd	s0,16(sp)
    8000214a:	e426                	sd	s1,8(sp)
    8000214c:	1000                	addi	s0,sp,32
    8000214e:	84aa                	mv	s1,a0
  acquire(&p->lock);
    80002150:	ad9fe0ef          	jal	80000c28 <acquire>
  p->killed = 1;
    80002154:	4785                	li	a5,1
    80002156:	d49c                	sw	a5,40(s1)
  release(&p->lock);
    80002158:	8526                	mv	a0,s1
    8000215a:	b63fe0ef          	jal	80000cbc <release>
}
    8000215e:	60e2                	ld	ra,24(sp)
    80002160:	6442                	ld	s0,16(sp)
    80002162:	64a2                	ld	s1,8(sp)
    80002164:	6105                	addi	sp,sp,32
    80002166:	8082                	ret

0000000080002168 <killed>:

int
killed(struct proc *p)
{
    80002168:	1101                	addi	sp,sp,-32
    8000216a:	ec06                	sd	ra,24(sp)
    8000216c:	e822                	sd	s0,16(sp)
    8000216e:	e426                	sd	s1,8(sp)
    80002170:	e04a                	sd	s2,0(sp)
    80002172:	1000                	addi	s0,sp,32
    80002174:	84aa                	mv	s1,a0
  int k;
  
  acquire(&p->lock);
    80002176:	ab3fe0ef          	jal	80000c28 <acquire>
  k = p->killed;
    8000217a:	549c                	lw	a5,40(s1)
    8000217c:	893e                	mv	s2,a5
  release(&p->lock);
    8000217e:	8526                	mv	a0,s1
    80002180:	b3dfe0ef          	jal	80000cbc <release>
  return k;
}
    80002184:	854a                	mv	a0,s2
    80002186:	60e2                	ld	ra,24(sp)
    80002188:	6442                	ld	s0,16(sp)
    8000218a:	64a2                	ld	s1,8(sp)
    8000218c:	6902                	ld	s2,0(sp)
    8000218e:	6105                	addi	sp,sp,32
    80002190:	8082                	ret

0000000080002192 <kwait>:
{
    80002192:	715d                	addi	sp,sp,-80
    80002194:	e486                	sd	ra,72(sp)
    80002196:	e0a2                	sd	s0,64(sp)
    80002198:	fc26                	sd	s1,56(sp)
    8000219a:	f84a                	sd	s2,48(sp)
    8000219c:	f44e                	sd	s3,40(sp)
    8000219e:	f052                	sd	s4,32(sp)
    800021a0:	ec56                	sd	s5,24(sp)
    800021a2:	e85a                	sd	s6,16(sp)
    800021a4:	e45e                	sd	s7,8(sp)
    800021a6:	0880                	addi	s0,sp,80
    800021a8:	8baa                	mv	s7,a0
  struct proc *p = myproc();
    800021aa:	f84ff0ef          	jal	8000192e <myproc>
    800021ae:	892a                	mv	s2,a0
  acquire(&wait_lock);
    800021b0:	0000d517          	auipc	a0,0xd
    800021b4:	7c050513          	addi	a0,a0,1984 # 8000f970 <wait_lock>
    800021b8:	a71fe0ef          	jal	80000c28 <acquire>
        if(pp->state == ZOMBIE){
    800021bc:	4a15                	li	s4,5
        havekids = 1;
    800021be:	4a85                	li	s5,1
    for(pp = proc; pp < &proc[NPROC]; pp++){
    800021c0:	00013997          	auipc	s3,0x13
    800021c4:	5c898993          	addi	s3,s3,1480 # 80015788 <tickslock>
    sleep(p, &wait_lock);  //DOC: wait-sleep
    800021c8:	0000db17          	auipc	s6,0xd
    800021cc:	7a8b0b13          	addi	s6,s6,1960 # 8000f970 <wait_lock>
    800021d0:	a869                	j	8000226a <kwait+0xd8>
          pid = pp->pid;
    800021d2:	0304a983          	lw	s3,48(s1)
          if(addr != 0 && copyout(p->pagetable, addr, (char *)&pp->xstate,
    800021d6:	000b8c63          	beqz	s7,800021ee <kwait+0x5c>
    800021da:	4691                	li	a3,4
    800021dc:	02c48613          	addi	a2,s1,44
    800021e0:	85de                	mv	a1,s7
    800021e2:	05093503          	ld	a0,80(s2)
    800021e6:	c6eff0ef          	jal	80001654 <copyout>
    800021ea:	02054a63          	bltz	a0,8000221e <kwait+0x8c>
          freeproc(pp);
    800021ee:	8526                	mv	a0,s1
    800021f0:	913ff0ef          	jal	80001b02 <freeproc>
          release(&pp->lock);
    800021f4:	8526                	mv	a0,s1
    800021f6:	ac7fe0ef          	jal	80000cbc <release>
          release(&wait_lock);
    800021fa:	0000d517          	auipc	a0,0xd
    800021fe:	77650513          	addi	a0,a0,1910 # 8000f970 <wait_lock>
    80002202:	abbfe0ef          	jal	80000cbc <release>
}
    80002206:	854e                	mv	a0,s3
    80002208:	60a6                	ld	ra,72(sp)
    8000220a:	6406                	ld	s0,64(sp)
    8000220c:	74e2                	ld	s1,56(sp)
    8000220e:	7942                	ld	s2,48(sp)
    80002210:	79a2                	ld	s3,40(sp)
    80002212:	7a02                	ld	s4,32(sp)
    80002214:	6ae2                	ld	s5,24(sp)
    80002216:	6b42                	ld	s6,16(sp)
    80002218:	6ba2                	ld	s7,8(sp)
    8000221a:	6161                	addi	sp,sp,80
    8000221c:	8082                	ret
            release(&pp->lock);
    8000221e:	8526                	mv	a0,s1
    80002220:	a9dfe0ef          	jal	80000cbc <release>
            release(&wait_lock);
    80002224:	0000d517          	auipc	a0,0xd
    80002228:	74c50513          	addi	a0,a0,1868 # 8000f970 <wait_lock>
    8000222c:	a91fe0ef          	jal	80000cbc <release>
            return -1;
    80002230:	59fd                	li	s3,-1
    80002232:	bfd1                	j	80002206 <kwait+0x74>
    for(pp = proc; pp < &proc[NPROC]; pp++){
    80002234:	16848493          	addi	s1,s1,360
    80002238:	03348063          	beq	s1,s3,80002258 <kwait+0xc6>
      if(pp->parent == p){
    8000223c:	7c9c                	ld	a5,56(s1)
    8000223e:	ff279be3          	bne	a5,s2,80002234 <kwait+0xa2>
        acquire(&pp->lock);
    80002242:	8526                	mv	a0,s1
    80002244:	9e5fe0ef          	jal	80000c28 <acquire>
        if(pp->state == ZOMBIE){
    80002248:	4c9c                	lw	a5,24(s1)
    8000224a:	f94784e3          	beq	a5,s4,800021d2 <kwait+0x40>
        release(&pp->lock);
    8000224e:	8526                	mv	a0,s1
    80002250:	a6dfe0ef          	jal	80000cbc <release>
        havekids = 1;
    80002254:	8756                	mv	a4,s5
    80002256:	bff9                	j	80002234 <kwait+0xa2>
    if(!havekids || killed(p)){
    80002258:	cf19                	beqz	a4,80002276 <kwait+0xe4>
    8000225a:	854a                	mv	a0,s2
    8000225c:	f0dff0ef          	jal	80002168 <killed>
    80002260:	e919                	bnez	a0,80002276 <kwait+0xe4>
    sleep(p, &wait_lock);  //DOC: wait-sleep
    80002262:	85da                	mv	a1,s6
    80002264:	854a                	mv	a0,s2
    80002266:	cc7ff0ef          	jal	80001f2c <sleep>
    havekids = 0;
    8000226a:	4701                	li	a4,0
    for(pp = proc; pp < &proc[NPROC]; pp++){
    8000226c:	0000e497          	auipc	s1,0xe
    80002270:	b1c48493          	addi	s1,s1,-1252 # 8000fd88 <proc>
    80002274:	b7e1                	j	8000223c <kwait+0xaa>
      release(&wait_lock);
    80002276:	0000d517          	auipc	a0,0xd
    8000227a:	6fa50513          	addi	a0,a0,1786 # 8000f970 <wait_lock>
    8000227e:	a3ffe0ef          	jal	80000cbc <release>
      return -1;
    80002282:	59fd                	li	s3,-1
    80002284:	b749                	j	80002206 <kwait+0x74>

0000000080002286 <either_copyout>:
// Copy to either a user address, or kernel address,
// depending on usr_dst.
// Returns 0 on success, -1 on error.
int
either_copyout(int user_dst, uint64 dst, void *src, uint64 len)
{
    80002286:	7179                	addi	sp,sp,-48
    80002288:	f406                	sd	ra,40(sp)
    8000228a:	f022                	sd	s0,32(sp)
    8000228c:	ec26                	sd	s1,24(sp)
    8000228e:	e84a                	sd	s2,16(sp)
    80002290:	e44e                	sd	s3,8(sp)
    80002292:	e052                	sd	s4,0(sp)
    80002294:	1800                	addi	s0,sp,48
    80002296:	84aa                	mv	s1,a0
    80002298:	8a2e                	mv	s4,a1
    8000229a:	89b2                	mv	s3,a2
    8000229c:	8936                	mv	s2,a3
  struct proc *p = myproc();
    8000229e:	e90ff0ef          	jal	8000192e <myproc>
  if(user_dst){
    800022a2:	cc99                	beqz	s1,800022c0 <either_copyout+0x3a>
    return copyout(p->pagetable, dst, src, len);
    800022a4:	86ca                	mv	a3,s2
    800022a6:	864e                	mv	a2,s3
    800022a8:	85d2                	mv	a1,s4
    800022aa:	6928                	ld	a0,80(a0)
    800022ac:	ba8ff0ef          	jal	80001654 <copyout>
  } else {
    memmove((char *)dst, src, len);
    return 0;
  }
}
    800022b0:	70a2                	ld	ra,40(sp)
    800022b2:	7402                	ld	s0,32(sp)
    800022b4:	64e2                	ld	s1,24(sp)
    800022b6:	6942                	ld	s2,16(sp)
    800022b8:	69a2                	ld	s3,8(sp)
    800022ba:	6a02                	ld	s4,0(sp)
    800022bc:	6145                	addi	sp,sp,48
    800022be:	8082                	ret
    memmove((char *)dst, src, len);
    800022c0:	0009061b          	sext.w	a2,s2
    800022c4:	85ce                	mv	a1,s3
    800022c6:	8552                	mv	a0,s4
    800022c8:	a91fe0ef          	jal	80000d58 <memmove>
    return 0;
    800022cc:	8526                	mv	a0,s1
    800022ce:	b7cd                	j	800022b0 <either_copyout+0x2a>

00000000800022d0 <either_copyin>:
// Copy from either a user address, or kernel address,
// depending on usr_src.
// Returns 0 on success, -1 on error.
int
either_copyin(void *dst, int user_src, uint64 src, uint64 len)
{
    800022d0:	7179                	addi	sp,sp,-48
    800022d2:	f406                	sd	ra,40(sp)
    800022d4:	f022                	sd	s0,32(sp)
    800022d6:	ec26                	sd	s1,24(sp)
    800022d8:	e84a                	sd	s2,16(sp)
    800022da:	e44e                	sd	s3,8(sp)
    800022dc:	e052                	sd	s4,0(sp)
    800022de:	1800                	addi	s0,sp,48
    800022e0:	8a2a                	mv	s4,a0
    800022e2:	84ae                	mv	s1,a1
    800022e4:	89b2                	mv	s3,a2
    800022e6:	8936                	mv	s2,a3
  struct proc *p = myproc();
    800022e8:	e46ff0ef          	jal	8000192e <myproc>
  if(user_src){
    800022ec:	cc99                	beqz	s1,8000230a <either_copyin+0x3a>
    return copyin(p->pagetable, dst, src, len);
    800022ee:	86ca                	mv	a3,s2
    800022f0:	864e                	mv	a2,s3
    800022f2:	85d2                	mv	a1,s4
    800022f4:	6928                	ld	a0,80(a0)
    800022f6:	c1cff0ef          	jal	80001712 <copyin>
  } else {
    memmove(dst, (char*)src, len);
    return 0;
  }
}
    800022fa:	70a2                	ld	ra,40(sp)
    800022fc:	7402                	ld	s0,32(sp)
    800022fe:	64e2                	ld	s1,24(sp)
    80002300:	6942                	ld	s2,16(sp)
    80002302:	69a2                	ld	s3,8(sp)
    80002304:	6a02                	ld	s4,0(sp)
    80002306:	6145                	addi	sp,sp,48
    80002308:	8082                	ret
    memmove(dst, (char*)src, len);
    8000230a:	0009061b          	sext.w	a2,s2
    8000230e:	85ce                	mv	a1,s3
    80002310:	8552                	mv	a0,s4
    80002312:	a47fe0ef          	jal	80000d58 <memmove>
    return 0;
    80002316:	8526                	mv	a0,s1
    80002318:	b7cd                	j	800022fa <either_copyin+0x2a>

000000008000231a <procdump>:
// Print a process listing to console.  For debugging.
// Runs when user types ^P on console.
// No lock to avoid wedging a stuck machine further.
void
procdump(void)
{
    8000231a:	715d                	addi	sp,sp,-80
    8000231c:	e486                	sd	ra,72(sp)
    8000231e:	e0a2                	sd	s0,64(sp)
    80002320:	fc26                	sd	s1,56(sp)
    80002322:	f84a                	sd	s2,48(sp)
    80002324:	f44e                	sd	s3,40(sp)
    80002326:	f052                	sd	s4,32(sp)
    80002328:	ec56                	sd	s5,24(sp)
    8000232a:	e85a                	sd	s6,16(sp)
    8000232c:	e45e                	sd	s7,8(sp)
    8000232e:	0880                	addi	s0,sp,80
  [ZOMBIE]    "zombie"
  };
  struct proc *p;
  char *state;

  printf("\n");
    80002330:	00005517          	auipc	a0,0x5
    80002334:	d4850513          	addi	a0,a0,-696 # 80007078 <etext+0x78>
    80002338:	9c2fe0ef          	jal	800004fa <printf>
  for(p = proc; p < &proc[NPROC]; p++){
    8000233c:	0000e497          	auipc	s1,0xe
    80002340:	ba448493          	addi	s1,s1,-1116 # 8000fee0 <proc+0x158>
    80002344:	00013917          	auipc	s2,0x13
    80002348:	59c90913          	addi	s2,s2,1436 # 800158e0 <bcache+0x140>
    if(p->state == UNUSED)
      continue;
    if(p->state >= 0 && p->state < NELEM(states) && states[p->state])
    8000234c:	4b15                	li	s6,5
      state = states[p->state];
    else
      state = "???";
    8000234e:	00005997          	auipc	s3,0x5
    80002352:	eb298993          	addi	s3,s3,-334 # 80007200 <etext+0x200>
    printf("%d %s %s", p->pid, state, p->name);
    80002356:	00005a97          	auipc	s5,0x5
    8000235a:	eb2a8a93          	addi	s5,s5,-334 # 80007208 <etext+0x208>
    printf("\n");
    8000235e:	00005a17          	auipc	s4,0x5
    80002362:	d1aa0a13          	addi	s4,s4,-742 # 80007078 <etext+0x78>
    if(p->state >= 0 && p->state < NELEM(states) && states[p->state])
    80002366:	00005b97          	auipc	s7,0x5
    8000236a:	3c2b8b93          	addi	s7,s7,962 # 80007728 <states.0>
    8000236e:	a829                	j	80002388 <procdump+0x6e>
    printf("%d %s %s", p->pid, state, p->name);
    80002370:	ed86a583          	lw	a1,-296(a3)
    80002374:	8556                	mv	a0,s5
    80002376:	984fe0ef          	jal	800004fa <printf>
    printf("\n");
    8000237a:	8552                	mv	a0,s4
    8000237c:	97efe0ef          	jal	800004fa <printf>
  for(p = proc; p < &proc[NPROC]; p++){
    80002380:	16848493          	addi	s1,s1,360
    80002384:	03248263          	beq	s1,s2,800023a8 <procdump+0x8e>
    if(p->state == UNUSED)
    80002388:	86a6                	mv	a3,s1
    8000238a:	ec04a783          	lw	a5,-320(s1)
    8000238e:	dbed                	beqz	a5,80002380 <procdump+0x66>
      state = "???";
    80002390:	864e                	mv	a2,s3
    if(p->state >= 0 && p->state < NELEM(states) && states[p->state])
    80002392:	fcfb6fe3          	bltu	s6,a5,80002370 <procdump+0x56>
    80002396:	02079713          	slli	a4,a5,0x20
    8000239a:	01d75793          	srli	a5,a4,0x1d
    8000239e:	97de                	add	a5,a5,s7
    800023a0:	6390                	ld	a2,0(a5)
    800023a2:	f679                	bnez	a2,80002370 <procdump+0x56>
      state = "???";
    800023a4:	864e                	mv	a2,s3
    800023a6:	b7e9                	j	80002370 <procdump+0x56>
  }
}
    800023a8:	60a6                	ld	ra,72(sp)
    800023aa:	6406                	ld	s0,64(sp)
    800023ac:	74e2                	ld	s1,56(sp)
    800023ae:	7942                	ld	s2,48(sp)
    800023b0:	79a2                	ld	s3,40(sp)
    800023b2:	7a02                	ld	s4,32(sp)
    800023b4:	6ae2                	ld	s5,24(sp)
    800023b6:	6b42                	ld	s6,16(sp)
    800023b8:	6ba2                	ld	s7,8(sp)
    800023ba:	6161                	addi	sp,sp,80
    800023bc:	8082                	ret

00000000800023be <swtch>:
# Save current registers in old. Load from new.	


.globl swtch
swtch:
        sd ra, 0(a0)
    800023be:	00153023          	sd	ra,0(a0)
        sd sp, 8(a0)
    800023c2:	00253423          	sd	sp,8(a0)
        sd s0, 16(a0)
    800023c6:	e900                	sd	s0,16(a0)
        sd s1, 24(a0)
    800023c8:	ed04                	sd	s1,24(a0)
        sd s2, 32(a0)
    800023ca:	03253023          	sd	s2,32(a0)
        sd s3, 40(a0)
    800023ce:	03353423          	sd	s3,40(a0)
        sd s4, 48(a0)
    800023d2:	03453823          	sd	s4,48(a0)
        sd s5, 56(a0)
    800023d6:	03553c23          	sd	s5,56(a0)
        sd s6, 64(a0)
    800023da:	05653023          	sd	s6,64(a0)
        sd s7, 72(a0)
    800023de:	05753423          	sd	s7,72(a0)
        sd s8, 80(a0)
    800023e2:	05853823          	sd	s8,80(a0)
        sd s9, 88(a0)
    800023e6:	05953c23          	sd	s9,88(a0)
        sd s10, 96(a0)
    800023ea:	07a53023          	sd	s10,96(a0)
        sd s11, 104(a0)
    800023ee:	07b53423          	sd	s11,104(a0)

        ld ra, 0(a1)
    800023f2:	0005b083          	ld	ra,0(a1)
        ld sp, 8(a1)
    800023f6:	0085b103          	ld	sp,8(a1)
        ld s0, 16(a1)
    800023fa:	6980                	ld	s0,16(a1)
        ld s1, 24(a1)
    800023fc:	6d84                	ld	s1,24(a1)
        ld s2, 32(a1)
    800023fe:	0205b903          	ld	s2,32(a1)
        ld s3, 40(a1)
    80002402:	0285b983          	ld	s3,40(a1)
        ld s4, 48(a1)
    80002406:	0305ba03          	ld	s4,48(a1)
        ld s5, 56(a1)
    8000240a:	0385ba83          	ld	s5,56(a1)
        ld s6, 64(a1)
    8000240e:	0405bb03          	ld	s6,64(a1)
        ld s7, 72(a1)
    80002412:	0485bb83          	ld	s7,72(a1)
        ld s8, 80(a1)
    80002416:	0505bc03          	ld	s8,80(a1)
        ld s9, 88(a1)
    8000241a:	0585bc83          	ld	s9,88(a1)
        ld s10, 96(a1)
    8000241e:	0605bd03          	ld	s10,96(a1)
        ld s11, 104(a1)
    80002422:	0685bd83          	ld	s11,104(a1)
        
        ret
    80002426:	8082                	ret

0000000080002428 <trapinit>:

extern int devintr();

void
trapinit(void)
{
    80002428:	1141                	addi	sp,sp,-16
    8000242a:	e406                	sd	ra,8(sp)
    8000242c:	e022                	sd	s0,0(sp)
    8000242e:	0800                	addi	s0,sp,16
  initlock(&tickslock, "time");
    80002430:	00005597          	auipc	a1,0x5
    80002434:	e1858593          	addi	a1,a1,-488 # 80007248 <etext+0x248>
    80002438:	00013517          	auipc	a0,0x13
    8000243c:	35050513          	addi	a0,a0,848 # 80015788 <tickslock>
    80002440:	f5efe0ef          	jal	80000b9e <initlock>
}
    80002444:	60a2                	ld	ra,8(sp)
    80002446:	6402                	ld	s0,0(sp)
    80002448:	0141                	addi	sp,sp,16
    8000244a:	8082                	ret

000000008000244c <trapinithart>:

// set up to take exceptions and traps while in the kernel.
void
trapinithart(void)
{
    8000244c:	1141                	addi	sp,sp,-16
    8000244e:	e406                	sd	ra,8(sp)
    80002450:	e022                	sd	s0,0(sp)
    80002452:	0800                	addi	s0,sp,16
  asm volatile("csrw stvec, %0" : : "r" (x));
    80002454:	00003797          	auipc	a5,0x3
    80002458:	f8c78793          	addi	a5,a5,-116 # 800053e0 <kernelvec>
    8000245c:	10579073          	csrw	stvec,a5
  w_stvec((uint64)kernelvec);
}
    80002460:	60a2                	ld	ra,8(sp)
    80002462:	6402                	ld	s0,0(sp)
    80002464:	0141                	addi	sp,sp,16
    80002466:	8082                	ret

0000000080002468 <prepare_return>:
//
// set up trapframe and control registers for a return to user space
//
void
prepare_return(void)
{
    80002468:	1141                	addi	sp,sp,-16
    8000246a:	e406                	sd	ra,8(sp)
    8000246c:	e022                	sd	s0,0(sp)
    8000246e:	0800                	addi	s0,sp,16
  struct proc *p = myproc();
    80002470:	cbeff0ef          	jal	8000192e <myproc>
  asm volatile("csrr %0, sstatus" : "=r" (x) );
    80002474:	100027f3          	csrr	a5,sstatus
  w_sstatus(r_sstatus() & ~SSTATUS_SIE);
    80002478:	9bf5                	andi	a5,a5,-3
  asm volatile("csrw sstatus, %0" : : "r" (x));
    8000247a:	10079073          	csrw	sstatus,a5
  // kerneltrap() to usertrap(). because a trap from kernel
  // code to usertrap would be a disaster, turn off interrupts.
  intr_off();

  // send syscalls, interrupts, and exceptions to uservec in trampoline.S
  uint64 trampoline_uservec = TRAMPOLINE + (uservec - trampoline);
    8000247e:	04000737          	lui	a4,0x4000
    80002482:	177d                	addi	a4,a4,-1 # 3ffffff <_entry-0x7c000001>
    80002484:	0732                	slli	a4,a4,0xc
    80002486:	00004797          	auipc	a5,0x4
    8000248a:	b7a78793          	addi	a5,a5,-1158 # 80006000 <_trampoline>
    8000248e:	00004697          	auipc	a3,0x4
    80002492:	b7268693          	addi	a3,a3,-1166 # 80006000 <_trampoline>
    80002496:	8f95                	sub	a5,a5,a3
    80002498:	97ba                	add	a5,a5,a4
  asm volatile("csrw stvec, %0" : : "r" (x));
    8000249a:	10579073          	csrw	stvec,a5
  w_stvec(trampoline_uservec);

  // set up trapframe values that uservec will need when
  // the process next traps into the kernel.
  p->trapframe->kernel_satp = r_satp();         // kernel page table
    8000249e:	6d3c                	ld	a5,88(a0)
  asm volatile("csrr %0, satp" : "=r" (x) );
    800024a0:	18002773          	csrr	a4,satp
    800024a4:	e398                	sd	a4,0(a5)
  p->trapframe->kernel_sp = p->kstack + PGSIZE; // process's kernel stack
    800024a6:	6d38                	ld	a4,88(a0)
    800024a8:	613c                	ld	a5,64(a0)
    800024aa:	6685                	lui	a3,0x1
    800024ac:	97b6                	add	a5,a5,a3
    800024ae:	e71c                	sd	a5,8(a4)
  p->trapframe->kernel_trap = (uint64)usertrap;
    800024b0:	6d3c                	ld	a5,88(a0)
    800024b2:	00000717          	auipc	a4,0x0
    800024b6:	0fc70713          	addi	a4,a4,252 # 800025ae <usertrap>
    800024ba:	eb98                	sd	a4,16(a5)
  p->trapframe->kernel_hartid = r_tp();         // hartid for cpuid()
    800024bc:	6d3c                	ld	a5,88(a0)
  asm volatile("mv %0, tp" : "=r" (x) );
    800024be:	8712                	mv	a4,tp
    800024c0:	f398                	sd	a4,32(a5)
  asm volatile("csrr %0, sstatus" : "=r" (x) );
    800024c2:	100027f3          	csrr	a5,sstatus
  // set up the registers that trampoline.S's sret will use
  // to get to user space.
  
  // set S Previous Privilege mode to User.
  unsigned long x = r_sstatus();
  x &= ~SSTATUS_SPP; // clear SPP to 0 for user mode
    800024c6:	eff7f793          	andi	a5,a5,-257
  x |= SSTATUS_SPIE; // enable interrupts in user mode
    800024ca:	0207e793          	ori	a5,a5,32
  asm volatile("csrw sstatus, %0" : : "r" (x));
    800024ce:	10079073          	csrw	sstatus,a5
  w_sstatus(x);

  // set S Exception Program Counter to the saved user pc.
  w_sepc(p->trapframe->epc);
    800024d2:	6d3c                	ld	a5,88(a0)
  asm volatile("csrw sepc, %0" : : "r" (x));
    800024d4:	6f9c                	ld	a5,24(a5)
    800024d6:	14179073          	csrw	sepc,a5
}
    800024da:	60a2                	ld	ra,8(sp)
    800024dc:	6402                	ld	s0,0(sp)
    800024de:	0141                	addi	sp,sp,16
    800024e0:	8082                	ret

00000000800024e2 <clockintr>:
  w_sstatus(sstatus);
}

void
clockintr()
{
    800024e2:	1141                	addi	sp,sp,-16
    800024e4:	e406                	sd	ra,8(sp)
    800024e6:	e022                	sd	s0,0(sp)
    800024e8:	0800                	addi	s0,sp,16
  if(cpuid() == 0){
    800024ea:	c10ff0ef          	jal	800018fa <cpuid>
    800024ee:	cd11                	beqz	a0,8000250a <clockintr+0x28>
  asm volatile("csrr %0, time" : "=r" (x) );
    800024f0:	c01027f3          	rdtime	a5
  }

  // ask for the next timer interrupt. this also clears
  // the interrupt request. 1000000 is about a tenth
  // of a second.
  w_stimecmp(r_time() + 1000000);
    800024f4:	000f4737          	lui	a4,0xf4
    800024f8:	24070713          	addi	a4,a4,576 # f4240 <_entry-0x7ff0bdc0>
    800024fc:	97ba                	add	a5,a5,a4
  asm volatile("csrw 0x14d, %0" : : "r" (x));
    800024fe:	14d79073          	csrw	stimecmp,a5
}
    80002502:	60a2                	ld	ra,8(sp)
    80002504:	6402                	ld	s0,0(sp)
    80002506:	0141                	addi	sp,sp,16
    80002508:	8082                	ret
    acquire(&tickslock);
    8000250a:	00013517          	auipc	a0,0x13
    8000250e:	27e50513          	addi	a0,a0,638 # 80015788 <tickslock>
    80002512:	f16fe0ef          	jal	80000c28 <acquire>
    ticks++;
    80002516:	00005717          	auipc	a4,0x5
    8000251a:	34270713          	addi	a4,a4,834 # 80007858 <ticks>
    8000251e:	431c                	lw	a5,0(a4)
    80002520:	2785                	addiw	a5,a5,1
    80002522:	c31c                	sw	a5,0(a4)
    wakeup(&ticks);
    80002524:	853a                	mv	a0,a4
    80002526:	a53ff0ef          	jal	80001f78 <wakeup>
    release(&tickslock);
    8000252a:	00013517          	auipc	a0,0x13
    8000252e:	25e50513          	addi	a0,a0,606 # 80015788 <tickslock>
    80002532:	f8afe0ef          	jal	80000cbc <release>
    80002536:	bf6d                	j	800024f0 <clockintr+0xe>

0000000080002538 <devintr>:
// returns 2 if timer interrupt,
// 1 if other device,
// 0 if not recognized.
int
devintr()
{
    80002538:	1101                	addi	sp,sp,-32
    8000253a:	ec06                	sd	ra,24(sp)
    8000253c:	e822                	sd	s0,16(sp)
    8000253e:	1000                	addi	s0,sp,32
  asm volatile("csrr %0, scause" : "=r" (x) );
    80002540:	14202773          	csrr	a4,scause
  uint64 scause = r_scause();

  if(scause == 0x8000000000000009L){
    80002544:	57fd                	li	a5,-1
    80002546:	17fe                	slli	a5,a5,0x3f
    80002548:	07a5                	addi	a5,a5,9
    8000254a:	00f70c63          	beq	a4,a5,80002562 <devintr+0x2a>
    // now allowed to interrupt again.
    if(irq)
      plic_complete(irq);

    return 1;
  } else if(scause == 0x8000000000000005L){
    8000254e:	57fd                	li	a5,-1
    80002550:	17fe                	slli	a5,a5,0x3f
    80002552:	0795                	addi	a5,a5,5
    // timer interrupt.
    clockintr();
    return 2;
  } else {
    return 0;
    80002554:	4501                	li	a0,0
  } else if(scause == 0x8000000000000005L){
    80002556:	04f70863          	beq	a4,a5,800025a6 <devintr+0x6e>
  }
}
    8000255a:	60e2                	ld	ra,24(sp)
    8000255c:	6442                	ld	s0,16(sp)
    8000255e:	6105                	addi	sp,sp,32
    80002560:	8082                	ret
    80002562:	e426                	sd	s1,8(sp)
    int irq = plic_claim();
    80002564:	729020ef          	jal	8000548c <plic_claim>
    80002568:	872a                	mv	a4,a0
    8000256a:	84aa                	mv	s1,a0
    if(irq == UART0_IRQ){
    8000256c:	47a9                	li	a5,10
    8000256e:	00f50963          	beq	a0,a5,80002580 <devintr+0x48>
    } else if(irq == VIRTIO0_IRQ){
    80002572:	4785                	li	a5,1
    80002574:	00f50963          	beq	a0,a5,80002586 <devintr+0x4e>
    return 1;
    80002578:	4505                	li	a0,1
    } else if(irq){
    8000257a:	eb09                	bnez	a4,8000258c <devintr+0x54>
    8000257c:	64a2                	ld	s1,8(sp)
    8000257e:	bff1                	j	8000255a <devintr+0x22>
      uartintr();
    80002580:	c74fe0ef          	jal	800009f4 <uartintr>
    if(irq)
    80002584:	a819                	j	8000259a <devintr+0x62>
      virtio_disk_intr();
    80002586:	39c030ef          	jal	80005922 <virtio_disk_intr>
    if(irq)
    8000258a:	a801                	j	8000259a <devintr+0x62>
      printf("unexpected interrupt irq=%d\n", irq);
    8000258c:	85ba                	mv	a1,a4
    8000258e:	00005517          	auipc	a0,0x5
    80002592:	cc250513          	addi	a0,a0,-830 # 80007250 <etext+0x250>
    80002596:	f65fd0ef          	jal	800004fa <printf>
      plic_complete(irq);
    8000259a:	8526                	mv	a0,s1
    8000259c:	711020ef          	jal	800054ac <plic_complete>
    return 1;
    800025a0:	4505                	li	a0,1
    800025a2:	64a2                	ld	s1,8(sp)
    800025a4:	bf5d                	j	8000255a <devintr+0x22>
    clockintr();
    800025a6:	f3dff0ef          	jal	800024e2 <clockintr>
    return 2;
    800025aa:	4509                	li	a0,2
    800025ac:	b77d                	j	8000255a <devintr+0x22>

00000000800025ae <usertrap>:
{
    800025ae:	1101                	addi	sp,sp,-32
    800025b0:	ec06                	sd	ra,24(sp)
    800025b2:	e822                	sd	s0,16(sp)
    800025b4:	e426                	sd	s1,8(sp)
    800025b6:	e04a                	sd	s2,0(sp)
    800025b8:	1000                	addi	s0,sp,32
  asm volatile("csrr %0, sstatus" : "=r" (x) );
    800025ba:	100027f3          	csrr	a5,sstatus
  if((r_sstatus() & SSTATUS_SPP) != 0)
    800025be:	1007f793          	andi	a5,a5,256
    800025c2:	eba5                	bnez	a5,80002632 <usertrap+0x84>
  asm volatile("csrw stvec, %0" : : "r" (x));
    800025c4:	00003797          	auipc	a5,0x3
    800025c8:	e1c78793          	addi	a5,a5,-484 # 800053e0 <kernelvec>
    800025cc:	10579073          	csrw	stvec,a5
  struct proc *p = myproc();
    800025d0:	b5eff0ef          	jal	8000192e <myproc>
    800025d4:	84aa                	mv	s1,a0
  p->trapframe->epc = r_sepc();
    800025d6:	6d3c                	ld	a5,88(a0)
  asm volatile("csrr %0, sepc" : "=r" (x) );
    800025d8:	14102773          	csrr	a4,sepc
    800025dc:	ef98                	sd	a4,24(a5)
  asm volatile("csrr %0, scause" : "=r" (x) );
    800025de:	14202773          	csrr	a4,scause
  if(r_scause() == 8){
    800025e2:	47a1                	li	a5,8
    800025e4:	04f70d63          	beq	a4,a5,8000263e <usertrap+0x90>
  } else if((which_dev = devintr()) != 0){
    800025e8:	f51ff0ef          	jal	80002538 <devintr>
    800025ec:	892a                	mv	s2,a0
    800025ee:	e945                	bnez	a0,8000269e <usertrap+0xf0>
    800025f0:	14202773          	csrr	a4,scause
  } else if((r_scause() == 15 || r_scause() == 13) &&
    800025f4:	47bd                	li	a5,15
    800025f6:	08f70863          	beq	a4,a5,80002686 <usertrap+0xd8>
    800025fa:	14202773          	csrr	a4,scause
    800025fe:	47b5                	li	a5,13
    80002600:	08f70363          	beq	a4,a5,80002686 <usertrap+0xd8>
    80002604:	142025f3          	csrr	a1,scause
    printf("usertrap(): unexpected scause 0x%lx pid=%d\n", r_scause(), p->pid);
    80002608:	5890                	lw	a2,48(s1)
    8000260a:	00005517          	auipc	a0,0x5
    8000260e:	c8650513          	addi	a0,a0,-890 # 80007290 <etext+0x290>
    80002612:	ee9fd0ef          	jal	800004fa <printf>
  asm volatile("csrr %0, sepc" : "=r" (x) );
    80002616:	141025f3          	csrr	a1,sepc
  asm volatile("csrr %0, stval" : "=r" (x) );
    8000261a:	14302673          	csrr	a2,stval
    printf("            sepc=0x%lx stval=0x%lx\n", r_sepc(), r_stval());
    8000261e:	00005517          	auipc	a0,0x5
    80002622:	ca250513          	addi	a0,a0,-862 # 800072c0 <etext+0x2c0>
    80002626:	ed5fd0ef          	jal	800004fa <printf>
    setkilled(p);
    8000262a:	8526                	mv	a0,s1
    8000262c:	b19ff0ef          	jal	80002144 <setkilled>
    80002630:	a035                	j	8000265c <usertrap+0xae>
    panic("usertrap: not from user mode");
    80002632:	00005517          	auipc	a0,0x5
    80002636:	c3e50513          	addi	a0,a0,-962 # 80007270 <etext+0x270>
    8000263a:	9eafe0ef          	jal	80000824 <panic>
    if(killed(p))
    8000263e:	b2bff0ef          	jal	80002168 <killed>
    80002642:	ed15                	bnez	a0,8000267e <usertrap+0xd0>
    p->trapframe->epc += 4;
    80002644:	6cb8                	ld	a4,88(s1)
    80002646:	6f1c                	ld	a5,24(a4)
    80002648:	0791                	addi	a5,a5,4
    8000264a:	ef1c                	sd	a5,24(a4)
  asm volatile("csrr %0, sstatus" : "=r" (x) );
    8000264c:	100027f3          	csrr	a5,sstatus
  w_sstatus(r_sstatus() | SSTATUS_SIE);
    80002650:	0027e793          	ori	a5,a5,2
  asm volatile("csrw sstatus, %0" : : "r" (x));
    80002654:	10079073          	csrw	sstatus,a5
    syscall();
    80002658:	240000ef          	jal	80002898 <syscall>
  if(killed(p))
    8000265c:	8526                	mv	a0,s1
    8000265e:	b0bff0ef          	jal	80002168 <killed>
    80002662:	e139                	bnez	a0,800026a8 <usertrap+0xfa>
  prepare_return();
    80002664:	e05ff0ef          	jal	80002468 <prepare_return>
  uint64 satp = MAKE_SATP(p->pagetable);
    80002668:	68a8                	ld	a0,80(s1)
    8000266a:	8131                	srli	a0,a0,0xc
    8000266c:	57fd                	li	a5,-1
    8000266e:	17fe                	slli	a5,a5,0x3f
    80002670:	8d5d                	or	a0,a0,a5
}
    80002672:	60e2                	ld	ra,24(sp)
    80002674:	6442                	ld	s0,16(sp)
    80002676:	64a2                	ld	s1,8(sp)
    80002678:	6902                	ld	s2,0(sp)
    8000267a:	6105                	addi	sp,sp,32
    8000267c:	8082                	ret
      kexit(-1);
    8000267e:	557d                	li	a0,-1
    80002680:	9b9ff0ef          	jal	80002038 <kexit>
    80002684:	b7c1                	j	80002644 <usertrap+0x96>
  asm volatile("csrr %0, stval" : "=r" (x) );
    80002686:	143025f3          	csrr	a1,stval
  asm volatile("csrr %0, scause" : "=r" (x) );
    8000268a:	14202673          	csrr	a2,scause
            vmfault(p->pagetable, r_stval(), (r_scause() == 13)? 1 : 0) != 0) {
    8000268e:	164d                	addi	a2,a2,-13 # ff3 <_entry-0x7ffff00d>
    80002690:	00163613          	seqz	a2,a2
    80002694:	68a8                	ld	a0,80(s1)
    80002696:	f3bfe0ef          	jal	800015d0 <vmfault>
  } else if((r_scause() == 15 || r_scause() == 13) &&
    8000269a:	f169                	bnez	a0,8000265c <usertrap+0xae>
    8000269c:	b7a5                	j	80002604 <usertrap+0x56>
  if(killed(p))
    8000269e:	8526                	mv	a0,s1
    800026a0:	ac9ff0ef          	jal	80002168 <killed>
    800026a4:	c511                	beqz	a0,800026b0 <usertrap+0x102>
    800026a6:	a011                	j	800026aa <usertrap+0xfc>
    800026a8:	4901                	li	s2,0
    kexit(-1);
    800026aa:	557d                	li	a0,-1
    800026ac:	98dff0ef          	jal	80002038 <kexit>
  if(which_dev == 2)
    800026b0:	4789                	li	a5,2
    800026b2:	faf919e3          	bne	s2,a5,80002664 <usertrap+0xb6>
    yield();
    800026b6:	84bff0ef          	jal	80001f00 <yield>
    800026ba:	b76d                	j	80002664 <usertrap+0xb6>

00000000800026bc <kerneltrap>:
{
    800026bc:	7179                	addi	sp,sp,-48
    800026be:	f406                	sd	ra,40(sp)
    800026c0:	f022                	sd	s0,32(sp)
    800026c2:	ec26                	sd	s1,24(sp)
    800026c4:	e84a                	sd	s2,16(sp)
    800026c6:	e44e                	sd	s3,8(sp)
    800026c8:	1800                	addi	s0,sp,48
  asm volatile("csrr %0, sepc" : "=r" (x) );
    800026ca:	14102973          	csrr	s2,sepc
  asm volatile("csrr %0, sstatus" : "=r" (x) );
    800026ce:	100024f3          	csrr	s1,sstatus
  asm volatile("csrr %0, scause" : "=r" (x) );
    800026d2:	142027f3          	csrr	a5,scause
    800026d6:	89be                	mv	s3,a5
  if((sstatus & SSTATUS_SPP) == 0)
    800026d8:	1004f793          	andi	a5,s1,256
    800026dc:	c795                	beqz	a5,80002708 <kerneltrap+0x4c>
  asm volatile("csrr %0, sstatus" : "=r" (x) );
    800026de:	100027f3          	csrr	a5,sstatus
  return (x & SSTATUS_SIE) != 0;
    800026e2:	8b89                	andi	a5,a5,2
  if(intr_get() != 0)
    800026e4:	eb85                	bnez	a5,80002714 <kerneltrap+0x58>
  if((which_dev = devintr()) == 0){
    800026e6:	e53ff0ef          	jal	80002538 <devintr>
    800026ea:	c91d                	beqz	a0,80002720 <kerneltrap+0x64>
  if(which_dev == 2 && myproc() != 0)
    800026ec:	4789                	li	a5,2
    800026ee:	04f50a63          	beq	a0,a5,80002742 <kerneltrap+0x86>
  asm volatile("csrw sepc, %0" : : "r" (x));
    800026f2:	14191073          	csrw	sepc,s2
  asm volatile("csrw sstatus, %0" : : "r" (x));
    800026f6:	10049073          	csrw	sstatus,s1
}
    800026fa:	70a2                	ld	ra,40(sp)
    800026fc:	7402                	ld	s0,32(sp)
    800026fe:	64e2                	ld	s1,24(sp)
    80002700:	6942                	ld	s2,16(sp)
    80002702:	69a2                	ld	s3,8(sp)
    80002704:	6145                	addi	sp,sp,48
    80002706:	8082                	ret
    panic("kerneltrap: not from supervisor mode");
    80002708:	00005517          	auipc	a0,0x5
    8000270c:	be050513          	addi	a0,a0,-1056 # 800072e8 <etext+0x2e8>
    80002710:	914fe0ef          	jal	80000824 <panic>
    panic("kerneltrap: interrupts enabled");
    80002714:	00005517          	auipc	a0,0x5
    80002718:	bfc50513          	addi	a0,a0,-1028 # 80007310 <etext+0x310>
    8000271c:	908fe0ef          	jal	80000824 <panic>
  asm volatile("csrr %0, sepc" : "=r" (x) );
    80002720:	14102673          	csrr	a2,sepc
  asm volatile("csrr %0, stval" : "=r" (x) );
    80002724:	143026f3          	csrr	a3,stval
    printf("scause=0x%lx sepc=0x%lx stval=0x%lx\n", scause, r_sepc(), r_stval());
    80002728:	85ce                	mv	a1,s3
    8000272a:	00005517          	auipc	a0,0x5
    8000272e:	c0650513          	addi	a0,a0,-1018 # 80007330 <etext+0x330>
    80002732:	dc9fd0ef          	jal	800004fa <printf>
    panic("kerneltrap");
    80002736:	00005517          	auipc	a0,0x5
    8000273a:	c2250513          	addi	a0,a0,-990 # 80007358 <etext+0x358>
    8000273e:	8e6fe0ef          	jal	80000824 <panic>
  if(which_dev == 2 && myproc() != 0)
    80002742:	9ecff0ef          	jal	8000192e <myproc>
    80002746:	d555                	beqz	a0,800026f2 <kerneltrap+0x36>
    yield();
    80002748:	fb8ff0ef          	jal	80001f00 <yield>
    8000274c:	b75d                	j	800026f2 <kerneltrap+0x36>

000000008000274e <argraw>:
  return strlen(buf);
}

static uint64
argraw(int n)
{
    8000274e:	1101                	addi	sp,sp,-32
    80002750:	ec06                	sd	ra,24(sp)
    80002752:	e822                	sd	s0,16(sp)
    80002754:	e426                	sd	s1,8(sp)
    80002756:	1000                	addi	s0,sp,32
    80002758:	84aa                	mv	s1,a0
  struct proc *p = myproc();
    8000275a:	9d4ff0ef          	jal	8000192e <myproc>
  switch (n) {
    8000275e:	4795                	li	a5,5
    80002760:	0497e163          	bltu	a5,s1,800027a2 <argraw+0x54>
    80002764:	048a                	slli	s1,s1,0x2
    80002766:	00005717          	auipc	a4,0x5
    8000276a:	ff270713          	addi	a4,a4,-14 # 80007758 <states.0+0x30>
    8000276e:	94ba                	add	s1,s1,a4
    80002770:	409c                	lw	a5,0(s1)
    80002772:	97ba                	add	a5,a5,a4
    80002774:	8782                	jr	a5
  case 0:
    return p->trapframe->a0;
    80002776:	6d3c                	ld	a5,88(a0)
    80002778:	7ba8                	ld	a0,112(a5)
  case 5:
    return p->trapframe->a5;
  }
  panic("argraw");
  return -1;
}
    8000277a:	60e2                	ld	ra,24(sp)
    8000277c:	6442                	ld	s0,16(sp)
    8000277e:	64a2                	ld	s1,8(sp)
    80002780:	6105                	addi	sp,sp,32
    80002782:	8082                	ret
    return p->trapframe->a1;
    80002784:	6d3c                	ld	a5,88(a0)
    80002786:	7fa8                	ld	a0,120(a5)
    80002788:	bfcd                	j	8000277a <argraw+0x2c>
    return p->trapframe->a2;
    8000278a:	6d3c                	ld	a5,88(a0)
    8000278c:	63c8                	ld	a0,128(a5)
    8000278e:	b7f5                	j	8000277a <argraw+0x2c>
    return p->trapframe->a3;
    80002790:	6d3c                	ld	a5,88(a0)
    80002792:	67c8                	ld	a0,136(a5)
    80002794:	b7dd                	j	8000277a <argraw+0x2c>
    return p->trapframe->a4;
    80002796:	6d3c                	ld	a5,88(a0)
    80002798:	6bc8                	ld	a0,144(a5)
    8000279a:	b7c5                	j	8000277a <argraw+0x2c>
    return p->trapframe->a5;
    8000279c:	6d3c                	ld	a5,88(a0)
    8000279e:	6fc8                	ld	a0,152(a5)
    800027a0:	bfe9                	j	8000277a <argraw+0x2c>
  panic("argraw");
    800027a2:	00005517          	auipc	a0,0x5
    800027a6:	bc650513          	addi	a0,a0,-1082 # 80007368 <etext+0x368>
    800027aa:	87afe0ef          	jal	80000824 <panic>

00000000800027ae <fetchaddr>:
{
    800027ae:	1101                	addi	sp,sp,-32
    800027b0:	ec06                	sd	ra,24(sp)
    800027b2:	e822                	sd	s0,16(sp)
    800027b4:	e426                	sd	s1,8(sp)
    800027b6:	e04a                	sd	s2,0(sp)
    800027b8:	1000                	addi	s0,sp,32
    800027ba:	84aa                	mv	s1,a0
    800027bc:	892e                	mv	s2,a1
  struct proc *p = myproc();
    800027be:	970ff0ef          	jal	8000192e <myproc>
  if(addr >= p->sz || addr+sizeof(uint64) > p->sz) // both tests needed, in case of overflow
    800027c2:	653c                	ld	a5,72(a0)
    800027c4:	02f4f663          	bgeu	s1,a5,800027f0 <fetchaddr+0x42>
    800027c8:	00848713          	addi	a4,s1,8
    800027cc:	02e7e463          	bltu	a5,a4,800027f4 <fetchaddr+0x46>
  if(copyin(p->pagetable, (char *)ip, addr, sizeof(*ip)) != 0)
    800027d0:	46a1                	li	a3,8
    800027d2:	8626                	mv	a2,s1
    800027d4:	85ca                	mv	a1,s2
    800027d6:	6928                	ld	a0,80(a0)
    800027d8:	f3bfe0ef          	jal	80001712 <copyin>
    800027dc:	00a03533          	snez	a0,a0
    800027e0:	40a0053b          	negw	a0,a0
}
    800027e4:	60e2                	ld	ra,24(sp)
    800027e6:	6442                	ld	s0,16(sp)
    800027e8:	64a2                	ld	s1,8(sp)
    800027ea:	6902                	ld	s2,0(sp)
    800027ec:	6105                	addi	sp,sp,32
    800027ee:	8082                	ret
    return -1;
    800027f0:	557d                	li	a0,-1
    800027f2:	bfcd                	j	800027e4 <fetchaddr+0x36>
    800027f4:	557d                	li	a0,-1
    800027f6:	b7fd                	j	800027e4 <fetchaddr+0x36>

00000000800027f8 <fetchstr>:
{
    800027f8:	7179                	addi	sp,sp,-48
    800027fa:	f406                	sd	ra,40(sp)
    800027fc:	f022                	sd	s0,32(sp)
    800027fe:	ec26                	sd	s1,24(sp)
    80002800:	e84a                	sd	s2,16(sp)
    80002802:	e44e                	sd	s3,8(sp)
    80002804:	1800                	addi	s0,sp,48
    80002806:	89aa                	mv	s3,a0
    80002808:	84ae                	mv	s1,a1
    8000280a:	8932                	mv	s2,a2
  struct proc *p = myproc();
    8000280c:	922ff0ef          	jal	8000192e <myproc>
  if(copyinstr(p->pagetable, buf, addr, max) < 0)
    80002810:	86ca                	mv	a3,s2
    80002812:	864e                	mv	a2,s3
    80002814:	85a6                	mv	a1,s1
    80002816:	6928                	ld	a0,80(a0)
    80002818:	ce1fe0ef          	jal	800014f8 <copyinstr>
    8000281c:	00054c63          	bltz	a0,80002834 <fetchstr+0x3c>
  return strlen(buf);
    80002820:	8526                	mv	a0,s1
    80002822:	e60fe0ef          	jal	80000e82 <strlen>
}
    80002826:	70a2                	ld	ra,40(sp)
    80002828:	7402                	ld	s0,32(sp)
    8000282a:	64e2                	ld	s1,24(sp)
    8000282c:	6942                	ld	s2,16(sp)
    8000282e:	69a2                	ld	s3,8(sp)
    80002830:	6145                	addi	sp,sp,48
    80002832:	8082                	ret
    return -1;
    80002834:	557d                	li	a0,-1
    80002836:	bfc5                	j	80002826 <fetchstr+0x2e>

0000000080002838 <argint>:

// Fetch the nth 32-bit system call argument.
void
argint(int n, int *ip)
{
    80002838:	1101                	addi	sp,sp,-32
    8000283a:	ec06                	sd	ra,24(sp)
    8000283c:	e822                	sd	s0,16(sp)
    8000283e:	e426                	sd	s1,8(sp)
    80002840:	1000                	addi	s0,sp,32
    80002842:	84ae                	mv	s1,a1
  *ip = argraw(n);
    80002844:	f0bff0ef          	jal	8000274e <argraw>
    80002848:	c088                	sw	a0,0(s1)
}
    8000284a:	60e2                	ld	ra,24(sp)
    8000284c:	6442                	ld	s0,16(sp)
    8000284e:	64a2                	ld	s1,8(sp)
    80002850:	6105                	addi	sp,sp,32
    80002852:	8082                	ret

0000000080002854 <argaddr>:
// Retrieve an argument as a pointer.
// Doesn't check for legality, since
// copyin/copyout will do that.
void
argaddr(int n, uint64 *ip)
{
    80002854:	1101                	addi	sp,sp,-32
    80002856:	ec06                	sd	ra,24(sp)
    80002858:	e822                	sd	s0,16(sp)
    8000285a:	e426                	sd	s1,8(sp)
    8000285c:	1000                	addi	s0,sp,32
    8000285e:	84ae                	mv	s1,a1
  *ip = argraw(n);
    80002860:	eefff0ef          	jal	8000274e <argraw>
    80002864:	e088                	sd	a0,0(s1)
}
    80002866:	60e2                	ld	ra,24(sp)
    80002868:	6442                	ld	s0,16(sp)
    8000286a:	64a2                	ld	s1,8(sp)
    8000286c:	6105                	addi	sp,sp,32
    8000286e:	8082                	ret

0000000080002870 <argstr>:
// Fetch the nth word-sized system call argument as a null-terminated string.
// Copies into buf, at most max.
// Returns string length if OK (including nul), -1 if error.
int
argstr(int n, char *buf, int max)
{
    80002870:	1101                	addi	sp,sp,-32
    80002872:	ec06                	sd	ra,24(sp)
    80002874:	e822                	sd	s0,16(sp)
    80002876:	e426                	sd	s1,8(sp)
    80002878:	e04a                	sd	s2,0(sp)
    8000287a:	1000                	addi	s0,sp,32
    8000287c:	892e                	mv	s2,a1
    8000287e:	84b2                	mv	s1,a2
  *ip = argraw(n);
    80002880:	ecfff0ef          	jal	8000274e <argraw>
  uint64 addr;
  argaddr(n, &addr);
  return fetchstr(addr, buf, max);
    80002884:	8626                	mv	a2,s1
    80002886:	85ca                	mv	a1,s2
    80002888:	f71ff0ef          	jal	800027f8 <fetchstr>
}
    8000288c:	60e2                	ld	ra,24(sp)
    8000288e:	6442                	ld	s0,16(sp)
    80002890:	64a2                	ld	s1,8(sp)
    80002892:	6902                	ld	s2,0(sp)
    80002894:	6105                	addi	sp,sp,32
    80002896:	8082                	ret

0000000080002898 <syscall>:
[SYS_close]   sys_close,
};

void
syscall(void)
{
    80002898:	1101                	addi	sp,sp,-32
    8000289a:	ec06                	sd	ra,24(sp)
    8000289c:	e822                	sd	s0,16(sp)
    8000289e:	e426                	sd	s1,8(sp)
    800028a0:	e04a                	sd	s2,0(sp)
    800028a2:	1000                	addi	s0,sp,32
  int num;
  struct proc *p = myproc();
    800028a4:	88aff0ef          	jal	8000192e <myproc>
    800028a8:	84aa                	mv	s1,a0

  num = p->trapframe->a7;
    800028aa:	05853903          	ld	s2,88(a0)
    800028ae:	0a893783          	ld	a5,168(s2)
    800028b2:	0007869b          	sext.w	a3,a5
  if(num > 0 && num < NELEM(syscalls) && syscalls[num]) {
    800028b6:	37fd                	addiw	a5,a5,-1
    800028b8:	4751                	li	a4,20
    800028ba:	00f76f63          	bltu	a4,a5,800028d8 <syscall+0x40>
    800028be:	00369713          	slli	a4,a3,0x3
    800028c2:	00005797          	auipc	a5,0x5
    800028c6:	eae78793          	addi	a5,a5,-338 # 80007770 <syscalls>
    800028ca:	97ba                	add	a5,a5,a4
    800028cc:	639c                	ld	a5,0(a5)
    800028ce:	c789                	beqz	a5,800028d8 <syscall+0x40>
    // Use num to lookup the system call function for num, call it,
    // and store its return value in p->trapframe->a0
    p->trapframe->a0 = syscalls[num]();
    800028d0:	9782                	jalr	a5
    800028d2:	06a93823          	sd	a0,112(s2)
    800028d6:	a829                	j	800028f0 <syscall+0x58>
  } else {
    printf("%d %s: unknown sys call %d\n",
    800028d8:	15848613          	addi	a2,s1,344
    800028dc:	588c                	lw	a1,48(s1)
    800028de:	00005517          	auipc	a0,0x5
    800028e2:	a9250513          	addi	a0,a0,-1390 # 80007370 <etext+0x370>
    800028e6:	c15fd0ef          	jal	800004fa <printf>
            p->pid, p->name, num);
    p->trapframe->a0 = -1;
    800028ea:	6cbc                	ld	a5,88(s1)
    800028ec:	577d                	li	a4,-1
    800028ee:	fbb8                	sd	a4,112(a5)
  }
}
    800028f0:	60e2                	ld	ra,24(sp)
    800028f2:	6442                	ld	s0,16(sp)
    800028f4:	64a2                	ld	s1,8(sp)
    800028f6:	6902                	ld	s2,0(sp)
    800028f8:	6105                	addi	sp,sp,32
    800028fa:	8082                	ret

00000000800028fc <sys_exit>:
#include "proc.h"
#include "vm.h"

uint64
sys_exit(void)
{
    800028fc:	1101                	addi	sp,sp,-32
    800028fe:	ec06                	sd	ra,24(sp)
    80002900:	e822                	sd	s0,16(sp)
    80002902:	1000                	addi	s0,sp,32
  int n;
  argint(0, &n);
    80002904:	fec40593          	addi	a1,s0,-20
    80002908:	4501                	li	a0,0
    8000290a:	f2fff0ef          	jal	80002838 <argint>
  kexit(n);
    8000290e:	fec42503          	lw	a0,-20(s0)
    80002912:	f26ff0ef          	jal	80002038 <kexit>
  return 0;  // not reached
}
    80002916:	4501                	li	a0,0
    80002918:	60e2                	ld	ra,24(sp)
    8000291a:	6442                	ld	s0,16(sp)
    8000291c:	6105                	addi	sp,sp,32
    8000291e:	8082                	ret

0000000080002920 <sys_getpid>:

uint64
sys_getpid(void)
{
    80002920:	1141                	addi	sp,sp,-16
    80002922:	e406                	sd	ra,8(sp)
    80002924:	e022                	sd	s0,0(sp)
    80002926:	0800                	addi	s0,sp,16
  return myproc()->pid;
    80002928:	806ff0ef          	jal	8000192e <myproc>
}
    8000292c:	5908                	lw	a0,48(a0)
    8000292e:	60a2                	ld	ra,8(sp)
    80002930:	6402                	ld	s0,0(sp)
    80002932:	0141                	addi	sp,sp,16
    80002934:	8082                	ret

0000000080002936 <sys_fork>:

uint64
sys_fork(void)
{
    80002936:	1141                	addi	sp,sp,-16
    80002938:	e406                	sd	ra,8(sp)
    8000293a:	e022                	sd	s0,0(sp)
    8000293c:	0800                	addi	s0,sp,16
  return kfork();
    8000293e:	b46ff0ef          	jal	80001c84 <kfork>
}
    80002942:	60a2                	ld	ra,8(sp)
    80002944:	6402                	ld	s0,0(sp)
    80002946:	0141                	addi	sp,sp,16
    80002948:	8082                	ret

000000008000294a <sys_wait>:

uint64
sys_wait(void)
{
    8000294a:	1101                	addi	sp,sp,-32
    8000294c:	ec06                	sd	ra,24(sp)
    8000294e:	e822                	sd	s0,16(sp)
    80002950:	1000                	addi	s0,sp,32
  uint64 p;
  argaddr(0, &p);
    80002952:	fe840593          	addi	a1,s0,-24
    80002956:	4501                	li	a0,0
    80002958:	efdff0ef          	jal	80002854 <argaddr>
  return kwait(p);
    8000295c:	fe843503          	ld	a0,-24(s0)
    80002960:	833ff0ef          	jal	80002192 <kwait>
}
    80002964:	60e2                	ld	ra,24(sp)
    80002966:	6442                	ld	s0,16(sp)
    80002968:	6105                	addi	sp,sp,32
    8000296a:	8082                	ret

000000008000296c <sys_sbrk>:

uint64
sys_sbrk(void)
{
    8000296c:	7179                	addi	sp,sp,-48
    8000296e:	f406                	sd	ra,40(sp)
    80002970:	f022                	sd	s0,32(sp)
    80002972:	ec26                	sd	s1,24(sp)
    80002974:	1800                	addi	s0,sp,48
  uint64 addr;
  int t;
  int n;

  argint(0, &n);
    80002976:	fd840593          	addi	a1,s0,-40
    8000297a:	4501                	li	a0,0
    8000297c:	ebdff0ef          	jal	80002838 <argint>
  argint(1, &t);
    80002980:	fdc40593          	addi	a1,s0,-36
    80002984:	4505                	li	a0,1
    80002986:	eb3ff0ef          	jal	80002838 <argint>
  addr = myproc()->sz;
    8000298a:	fa5fe0ef          	jal	8000192e <myproc>
    8000298e:	6524                	ld	s1,72(a0)

  if(t == SBRK_EAGER || n < 0) {
    80002990:	fdc42703          	lw	a4,-36(s0)
    80002994:	4785                	li	a5,1
    80002996:	02f70163          	beq	a4,a5,800029b8 <sys_sbrk+0x4c>
    8000299a:	fd842783          	lw	a5,-40(s0)
    8000299e:	0007cd63          	bltz	a5,800029b8 <sys_sbrk+0x4c>
    }
  } else {
    // Lazily allocate memory for this process: increase its memory
    // size but don't allocate memory. If the processes uses the
